
BUILD/PULP/GCC_RISCV/lemon_dot/lemon_dot:     file format elf32-littleriscv

SYMBOL TABLE:
00000004 l    d  .data_tiny_fc	00000000 .data_tiny_fc
1c000848 l    d  .init	00000000 .init
1c000848 l    d  .fini	00000000 .fini
1c000848 l    d  .preinit_array	00000000 .preinit_array
1c000848 l    d  .init_array	00000000 .init_array
1c00085c l    d  .fini_array	00000000 .fini_array
1c000868 l    d  .boot	00000000 .boot
1c000868 l    d  .rodata	00000000 .rodata
1c000ca4 l    d  .got	00000000 .got
1c000ca4 l    d  .shbss	00000000 .shbss
1c000ca4 l    d  .gnu.offload_funcs	00000000 .gnu.offload_funcs
1c000ca4 l    d  .gnu.offload_vars	00000000 .gnu.offload_vars
1c000ca4 l    d  .stack	00000000 .stack
1c0014b0 l    d  .data	00000000 .data
1c0014f0 l    d  .bss	00000000 .bss
1c008000 l    d  .vectors	00000000 .vectors
1c00809c l    d  .text	00000000 .text
1c010000 l    d  .l2_data	00000000 .l2_data
00000004 l    d  .data_tiny_l1	00000000 .data_tiny_l1
1000001c l    d  .l1cluster_g	00000000 .l1cluster_g
10000124 l    d  .bss_l1	00000000 .bss_l1
00000000 l    d  .debug_frame	00000000 .debug_frame
00000000 l    d  .debug_info	00000000 .debug_info
00000000 l    d  .debug_abbrev	00000000 .debug_abbrev
00000000 l    d  .debug_loc	00000000 .debug_loc
00000000 l    d  .debug_aranges	00000000 .debug_aranges
00000000 l    d  .debug_ranges	00000000 .debug_ranges
00000000 l    d  .debug_line	00000000 .debug_line
00000000 l    d  .debug_str	00000000 .debug_str
00000000 l    d  .comment	00000000 .comment
00000000 l    d  .Pulp_Chip.Info	00000000 .Pulp_Chip.Info
00000000 l    df *ABS*	00000000 fll-v1.c
00000010 l     O .data_tiny_fc	00000003 pos_fll_is_on
00000000 l    df *ABS*	00000000 freq-domains.c
00000000 l    df *ABS*	00000000 task.c
00000000 l    df *ABS*	00000000 soc_event.c
00000000 l    df *ABS*	00000000 init.c
1c00084c l     O .init_array	00000004 ctor_list
1c000860 l     O .fini_array	00000004 dtor_list
00000000 l    df *ABS*	00000000 time.c
1c009e90 l     F .text	00000016 pos_time_poweroff
1c009ea6 l     F .text	00000016 pos_time_poweron
1c0014c8 l     O .data	00000004 pos_time_timer_count
1c0014d0 l     O .data	00000010 pos_time_cbsys_poweroff
1c0014e0 l     O .data	00000010 pos_time_cbsys_poweron
00000000 l    df *ABS*	00000000 uart-v1.c
1c010150 l     O .l2_data	00000038 pos_uart
00000000 l    df *ABS*	00000000 libgcc2.c
00000000 l    df *ABS*	00000000 lemon_dot.c
1c008706 l     F .text	00000066 print_matrix.constprop.1
00000000 l    df *ABS*	00000000 prf.c
1c008bd2 l     F .text	000000c0 _to_hex
00000000 l    df *ABS*	00000000 libgcc2.c
00000000 l    df *ABS*	00000000 libgcc2.c
00000000 l    df *ABS*	00000000 kernel.c
1c0014b0 l     O .data	00000018 pos_cbsys_first
00000000 l    df *ABS*	00000000 /home/cody/workspace/Pulp-Based-ML-Hardware-Acceleration/hwpe/lemon_dot/BUILD/PULP/GCC_RISCV//lemon_dot/kernel/crt0.o
1c00a2e8 l       .text	00000000 label0
1c00808c l       .vectors	00000000 pos_illegal_instr
1c008090 l       .vectors	00000000 pos_no_irq_handler
00000000 l    df *ABS*	00000000 soc.c
00000000 l    df *ABS*	00000000 io.c
00000000 l    df *ABS*	00000000 fprintf.c
00000000 l    df *ABS*	00000000 device.c
00000000 l    df *ABS*	00000000 alloc.c
00000000 l    df *ABS*	00000000 alloc_pool.c
00000000 l    df *ABS*	00000000 irq.c
00000000 l    df *ABS*	00000000 cluster.c
00000000 l    df *ABS*	00000000 /home/cody/workspace/Pulp-Based-ML-Hardware-Acceleration/hwpe/lemon_dot/BUILD/PULP/GCC_RISCV//lemon_dot/kernel/task_asm.o
1c00a3f0 l       .text	00000000 __rt_no_first
1c00a3f8 l       .text	00000000 __rt_common
1c00a400 l       .text	00000000 enqueue_end
1c00a424 l       .text	00000000 pos_task_remote_enqueue_event_loop_cluster
1c00a45c l       .text	00000000 pos_task_remote_enqueue_event_loop_cluster_continue
1c00a434 l       .text	00000000 pos_task_remote_enqueue_no_queue_update
1c00a450 l       .text	00000000 pos_task_callback
1c00a47e l       .text	00000000 pos_task_remote_enqueue_event_loop_next_cluster
00000000 l    df *ABS*	00000000 /home/cody/workspace/Pulp-Based-ML-Hardware-Acceleration/hwpe/lemon_dot/BUILD/PULP/GCC_RISCV//lemon_dot/kernel/time_asm.o
1c00a4ac l       .text	00000000 pos_time_timer_handler_asm_ret
00000000 l    df *ABS*	00000000 /home/cody/workspace/Pulp-Based-ML-Hardware-Acceleration/hwpe/lemon_dot/BUILD/PULP/GCC_RISCV//lemon_dot/kernel/soc_event_v2_itc.o
1c00a4f6 l       .text	00000000 pos_soc_event_no_udma_asm
1c00a4f6 l       .text	00000000 pos_soc_event_store_asm
00000000 l    df *ABS*	00000000 /home/cody/workspace/Pulp-Based-ML-Hardware-Acceleration/hwpe/lemon_dot/BUILD/PULP/GCC_RISCV//lemon_dot/drivers/cluster/pe-eu-v3.o
1c010100 l       .l2_data	00000000 pos_slave_start
1c01006e l       .l2_data	00000000 pos_master_event
1c010086 l       .l2_data	00000000 pos_master_loop
1c010076 l       .l2_data	00000000 pos_push_event_to_fc_retry
1c0100f2 l       .l2_data	00000000 pos_push_event_to_fc_wait
1c0100e4 l       .l2_data	00000000 pos_master_sleep
1c01008e l       .l2_data	00000000 pos_master_loop_update_next
1c01009e l       .l2_data	00000000 pos_master_loop_exec_task
1c0100c6 l       .l2_data	00000000 pos_no_stack_check
1c0100d2 l       .l2_data	00000000 pos_master_no_slave_barrier
1c0100e2 l       .l2_data	00000000 pos_master_loop_no_slave
1c01011e l       .l2_data	00000000 pos_fork_return
1c010122 l       .l2_data	00000000 pos_wait_for_dispatch
1c010138 l       .l2_data	00000000 pos_other_entry
1c010132 l       .l2_data	00000000 pos_fork_entry
1c008b48 g     F .text	00000026 putchar
1000005c g     O .l1cluster_g	00000040 matrix_b
1c01013e g       .l2_data	00000000 pos_set_slave_stack
1c00a018 g     F .text	00000168 pi_cluster_open
1c008ba4 g     F .text	0000002e printf
ffffffff g       *ABS*	00000000 pulp__L2
1c00a00e g     F .text	0000000a pi_cluster_conf_init
ffffffff g       *ABS*	00000000 pulp__PE
1c009bba g     F .text	0000001a pos_cbsys_add
100000dc g     O .l1cluster_g	00000040 golden
1c00a2d0 g       .text	00000000 pos_init_entry
1c00a52c g       .text	00000000 _etext
1c0014b0 g       .data	00000000 sdata
00000014 g     O .data_tiny_fc	0000000c pos_freq_domains
1c009ebc g     F .text	000000e4 pos_time_timer_handler
1c000868 g       .fini_array	00000000 __DTOR_END__
00000150 g       *ABS*	00000000 __cluster_text_size
1c008ad4 g     F .text	0000004c puts
1c009e38 g     F .text	00000058 pos_soc_event_init
1c0014f0 g       .bss	00000000 _bss_start
1c0014f0 g       .data	00000000 edata
1c008b46 g     F .text	00000002 pos_libc_fputc_locked
00000028 g     O .data_tiny_fc	00000020 pos_soc_event_status
1c0014b0 g       .data	00000000 _sdata
10000124 g       .l1cluster_g	00000000 __l1_end
1c009b5a g     F .text	00000038 pos_init_start
1c009caa g     F .text	0000005c pos_free
1c00a402 g       .text	00000000 pos_task_remote_enqueue
10000124 g       .l1cluster_g	00000000 _libgomp_start
1c0083d8 g     F .text	0000032e .hidden __umoddi3
1c008b9c g     F .text	00000004 pos_io_start
00000020 g     O .data_tiny_fc	00000004 pos_sched_first
1c009db8 g     F .text	0000004e pos_irq_set_handler
1c0014b0 g       .stack	00000000 stack
1c00809c g     F .text	0000033c .hidden __udivdi3
00000120 g       *ABS*	00000000 _l1_preload_size
1000009c g     O .l1cluster_g	00000040 matrix_c
1c009c2a g     F .text	00000020 pos_alloc_init
1c001520 g       .bss	00000000 _bss_end
1c009be0 g     F .text	00000044 pos_task_handle
1c008094 g       .vectors	00000000 pos_semihosting_call
00000004 g     O .data_tiny_l1	00000014 pos_cluster_pool
00000048 g     O .data_tiny_fc	00000400 pos_soc_event_callback_arg
1c00a284 g     F .text	0000004c pi_cluster_send_task_to_cl
1c000cb0 g       .stack	00000000 stack_start
1c00a33a g       .text	00000000 pos_irq_call_external_c_function
1c0014f4 g     O .bss	00000004 pos_alloc_l1
00000448 g     O .data_tiny_fc	00000400 pos_soc_event_callback
1c00a202 g     F .text	00000082 pi_cluster_send_task_to_cl_async
1c010000 g       .l2_data	00000000 pos_pe_start
1c009da0 g     F .text	00000018 pi_cl_l1_free
1c00a492 g       .text	00000000 pos_time_timer_handler_asm
1c009fa0 g     F .text	00000064 pos_time_init
1c008a64 g     F .text	0000001a pos_fll_constructor
1c000848 g       .init_array	00000000 __CTOR_LIST__
1c0014cc g     O .data	00000004 pos_time_first_delayed
1c010000 g       .l2_data	00000000 __cluster_text_start
00000024 g     O .data_tiny_fc	00000004 pos_sched_last
1c0089c6 g     F .text	0000009e pos_fll_init
1c008080 g       .vectors	00000000 _start
1c0102a8 g       *ABS*	00000000 __l2_shared_end
1c010188 g       .l2_data	00000000 _l1_preload_start_inL2
10000124 g       .l1cluster_g	00000000 __l1_heap_start
1c009e06 g     F .text	00000032 pos_irq_init
1c00a3ce g       .text	00000000 pos_task_push_asm
1c009d28 g     F .text	00000060 pos_allocs_init
1c00876c g     F .text	000001a6 cluster_entry
1c00a51a g       .text	00000000 pos_soc_event_handler_end_asm
1c0014f0 g     O .bss	00000004 pos_kernel_pmsis_exit_value
1c009d06 g     F .text	00000022 pos_alloc_init_l1
1c00a4b6 g       .text	00000000 pos_soc_event_handler_asm
1c00a52c g       .text	00000000 __l2_priv1_end
00000018 g     O .data_tiny_l1	00000004 pos_cluster_nb_active_pe
1c008912 g     F .text	0000005a main
1c009b92 g     F .text	00000028 pos_init_stop
1c001520 g       .bss	00000000 __l2_priv0_end
1c00085c g       .init_array	00000000 __CTOR_END__
1000001c g     O .l1cluster_g	00000040 matrix_a
10000120 g     O .l1cluster_g	00000001 pos_cluster_exec_mode
1c00085c g       .fini_array	00000000 __DTOR_LIST__
1000011c g     O .l1cluster_g	00000004 pos_cluster_fc_task_lock
1c000868 g     O .rodata	00000100 .hidden __clz_tab
1c009d88 g     F .text	00000018 pi_cl_l1_malloc
1c0014f8 g     O .bss	00000008 pos_alloc_l2
1c001500 g     O .bss	00000020 pos_cluster
1c008a7e g     F .text	00000028 pos_soc_init
1c00a184 g     F .text	0000007e pos_cluster_task_set_stack
1c008b20 g     F .text	00000026 fputc
1c009c24 g     F .text	00000006 pos_sched_init
00000004 g       .data_tiny_l1	00000000 _l1_preload_start
1c009bd8 g     F .text	00000008 pos_task_handle_blocking
1c008000 g       .vectors	00000000 __irq_vector_base
1c0014f0 g       .data	00000000 _edata
1c008b6e g     F .text	00000002 pos_libc_prf_locked
00000004 g     O .data_tiny_fc	0000000c pos_fll_freq
1c009bd4 g     F .text	00000004 pi_open_from_conf
ffffffff g       *ABS*	00000000 pulp__FC
1c008b70 g     F .text	0000002c exit
1c00a180 g     F .text	00000004 pi_cluster_close
0000fedc g       .l1cluster_g	00000000 __l1_heap_size
1c00a004 g     F .text	0000000a pos_uart_init
1c00896c g     F .text	0000005a pos_fll_set_freq
1c009c4a g     F .text	00000060 pos_alloc
1c00809c g       .text	00000000 _stext
ffffffff g       *ABS*	00000000 pulp__L1CL
1c008aa6 g     F .text	0000002e strchr
1c008c92 g     F .text	00000ec8 pos_libc_prf
1c010150 g       .l2_data	00000000 __cluster_text_end
1c00a380 g       .text	00000000 pos_irq_call_external_c_function_full
1c008ba0 g     F .text	00000004 pos_io_stop
1c00a52c g       .text	00000000 _endtext
ffffffff g       *ABS*	00000000 pulp__L1FC



Disassembly of section .vectors:

1c008000 <__irq_vector_base>:
.section .vectors, "ax"
.option norvc;


#ifdef ARCHI_CORE_HAS_1_10
    j pos_illegal_instr
1c008000:	08c0006f          	j	1c00808c <pos_illegal_instr>
#else
    j pos_no_irq_handler
#endif

    j pos_no_irq_handler
1c008004:	08c0006f          	j	1c008090 <pos_no_irq_handler>
    j pos_no_irq_handler
1c008008:	0880006f          	j	1c008090 <pos_no_irq_handler>
    j pos_no_irq_handler
1c00800c:	0840006f          	j	1c008090 <pos_no_irq_handler>
    j pos_no_irq_handler
1c008010:	0800006f          	j	1c008090 <pos_no_irq_handler>
    j pos_no_irq_handler
1c008014:	07c0006f          	j	1c008090 <pos_no_irq_handler>
    j pos_no_irq_handler
1c008018:	0780006f          	j	1c008090 <pos_no_irq_handler>
    j pos_no_irq_handler
1c00801c:	0740006f          	j	1c008090 <pos_no_irq_handler>
    j pos_no_irq_handler
1c008020:	0700006f          	j	1c008090 <pos_no_irq_handler>
    j pos_no_irq_handler
1c008024:	06c0006f          	j	1c008090 <pos_no_irq_handler>
    j pos_no_irq_handler
1c008028:	0680006f          	j	1c008090 <pos_no_irq_handler>
    j pos_no_irq_handler
1c00802c:	0640006f          	j	1c008090 <pos_no_irq_handler>
    j pos_no_irq_handler
1c008030:	0600006f          	j	1c008090 <pos_no_irq_handler>
    j pos_no_irq_handler
1c008034:	05c0006f          	j	1c008090 <pos_no_irq_handler>
    j pos_no_irq_handler
1c008038:	0580006f          	j	1c008090 <pos_no_irq_handler>
    j pos_no_irq_handler
1c00803c:	0540006f          	j	1c008090 <pos_no_irq_handler>
    j pos_no_irq_handler
1c008040:	0500006f          	j	1c008090 <pos_no_irq_handler>
    j pos_no_irq_handler
1c008044:	04c0006f          	j	1c008090 <pos_no_irq_handler>
    j pos_no_irq_handler
1c008048:	0480006f          	j	1c008090 <pos_no_irq_handler>
    j pos_no_irq_handler
1c00804c:	0440006f          	j	1c008090 <pos_no_irq_handler>
    j pos_no_irq_handler
1c008050:	0400006f          	j	1c008090 <pos_no_irq_handler>
    j pos_no_irq_handler
1c008054:	03c0006f          	j	1c008090 <pos_no_irq_handler>
    j pos_no_irq_handler
1c008058:	0380006f          	j	1c008090 <pos_no_irq_handler>
    j pos_no_irq_handler
1c00805c:	0340006f          	j	1c008090 <pos_no_irq_handler>
    j pos_no_irq_handler
1c008060:	0300006f          	j	1c008090 <pos_no_irq_handler>
    j pos_no_irq_handler
1c008064:	02c0006f          	j	1c008090 <pos_no_irq_handler>
    j pos_no_irq_handler
1c008068:	0280006f          	j	1c008090 <pos_no_irq_handler>
    j pos_no_irq_handler
1c00806c:	0240006f          	j	1c008090 <pos_no_irq_handler>
    j pos_no_irq_handler
1c008070:	0200006f          	j	1c008090 <pos_no_irq_handler>
    j pos_no_irq_handler
1c008074:	01c0006f          	j	1c008090 <pos_no_irq_handler>
    j pos_no_irq_handler
1c008078:	0180006f          	j	1c008090 <pos_no_irq_handler>
    j pos_no_irq_handler
1c00807c:	0140006f          	j	1c008090 <pos_no_irq_handler>

1c008080 <_start>:


    .org 0x80
    .global _start
_start:
    la  a0, pos_init_entry
1c008080:	00002517          	auipc	a0,0x2
1c008084:	25050513          	addi	a0,a0,592 # 1c00a2d0 <pos_init_entry>
    jalr x0, a0
1c008088:	00050067          	jr	a0

1c00808c <pos_illegal_instr>:


pos_illegal_instr:
    j pos_illegal_instr
1c00808c:	0000006f          	j	1c00808c <pos_illegal_instr>

1c008090 <pos_no_irq_handler>:

pos_no_irq_handler:
    mret
1c008090:	30200073          	mret

1c008094 <pos_semihosting_call>:


    .global pos_semihosting_call
pos_semihosting_call:
    ebreak
1c008094:	00100073          	ebreak
    jr          ra
1c008098:	00008067          	ret

Disassembly of section .text:

1c00809c <__udivdi3>:
  DWunion rr;
  UWtype d0, d1, n0, n1, n2;
  UWtype q0, q1;
  UWtype b, bm;

  d0 = dd.s.low;
1c00809c:	87b2                	mv	a5,a2
  d1 = dd.s.high;
1c00809e:	8736                	mv	a4,a3
  n0 = nn.s.low;
1c0080a0:	88aa                	mv	a7,a0
  n1 = nn.s.high;
1c0080a2:	882e                	mv	a6,a1
	}
    }

#else /* UDIV_NEEDS_NORMALIZATION */

  if (d1 == 0)
1c0080a4:	1e069d63          	bnez	a3,1c00829e <__udivdi3+0x202>
1c0080a8:	1c001337          	lui	t1,0x1c001
1c0080ac:	86830313          	addi	t1,t1,-1944 # 1c000868 <__DTOR_END__>
    {
      if (d0 > n1)
1c0080b0:	0ac5fd63          	bleu	a2,a1,1c00816a <__udivdi3+0xce>
	{
	  /* 0q = nn / 0D */

	  count_leading_zeros (bm, d0);
1c0080b4:	6741                	lui	a4,0x10
1c0080b6:	0ae67363          	bleu	a4,a2,1c00815c <__udivdi3+0xc0>
1c0080ba:	0ff00693          	li	a3,255
1c0080be:	00c6b6b3          	sltu	a3,a3,a2
1c0080c2:	068e                	slli	a3,a3,0x3
1c0080c4:	00d65733          	srl	a4,a2,a3
1c0080c8:	933a                	add	t1,t1,a4
1c0080ca:	00034703          	lbu	a4,0(t1)
1c0080ce:	02000313          	li	t1,32
1c0080d2:	96ba                	add	a3,a3,a4
1c0080d4:	40d30333          	sub	t1,t1,a3

	  if (bm != 0)
1c0080d8:	00030c63          	beqz	t1,1c0080f0 <__udivdi3+0x54>
	    {
	      /* Normalize, i.e. make the most significant bit of the
		 denominator set.  */

	      d0 = d0 << bm;
	      n1 = (n1 << bm) | (n0 >> (W_TYPE_SIZE - bm));
1c0080dc:	00659733          	sll	a4,a1,t1
1c0080e0:	00d556b3          	srl	a3,a0,a3
	      d0 = d0 << bm;
1c0080e4:	006617b3          	sll	a5,a2,t1
	      n1 = (n1 << bm) | (n0 >> (W_TYPE_SIZE - bm));
1c0080e8:	00e6e833          	or	a6,a3,a4
	      n0 = n0 << bm;
1c0080ec:	006518b3          	sll	a7,a0,t1
	    }

	  udiv_qrnnd (q0, n0, n1, n0, d0);
1c0080f0:	0107d513          	srli	a0,a5,0x10
1c0080f4:	02a87633          	remu	a2,a6,a0
1c0080f8:	02a85733          	divu	a4,a6,a0
1c0080fc:	0642                	slli	a2,a2,0x10
1c0080fe:	1007d5b3          	p.exthz	a1,a5
1c008102:	0108d693          	srli	a3,a7,0x10
1c008106:	8ed1                	or	a3,a3,a2
1c008108:	02e58833          	mul	a6,a1,a4
1c00810c:	863a                	mv	a2,a4
1c00810e:	0106fc63          	bleu	a6,a3,1c008126 <__udivdi3+0x8a>
1c008112:	96be                	add	a3,a3,a5
1c008114:	fff70613          	addi	a2,a4,-1 # ffff <__l1_heap_size+0x123>
1c008118:	00f6e763          	bltu	a3,a5,1c008126 <__udivdi3+0x8a>
1c00811c:	0106f563          	bleu	a6,a3,1c008126 <__udivdi3+0x8a>
1c008120:	ffe70613          	addi	a2,a4,-2
1c008124:	96be                	add	a3,a3,a5
1c008126:	410686b3          	sub	a3,a3,a6
1c00812a:	02a6f833          	remu	a6,a3,a0
1c00812e:	02a6d6b3          	divu	a3,a3,a0
1c008132:	df0828b3          	p.insert	a7,a6,15,16
1c008136:	02d58733          	mul	a4,a1,a3
1c00813a:	8536                	mv	a0,a3
1c00813c:	00e8fb63          	bleu	a4,a7,1c008152 <__udivdi3+0xb6>
1c008140:	98be                	add	a7,a7,a5
1c008142:	fff68513          	addi	a0,a3,-1
1c008146:	00f8e663          	bltu	a7,a5,1c008152 <__udivdi3+0xb6>
1c00814a:	00e8f463          	bleu	a4,a7,1c008152 <__udivdi3+0xb6>
1c00814e:	ffe68513          	addi	a0,a3,-2
1c008152:	01061793          	slli	a5,a2,0x10
1c008156:	8fc9                	or	a5,a5,a0
		{
		  q0--;
		  sub_ddmmss (m1, m0, m1, m0, d1, d0);
		}

	      q1 = 0;
1c008158:	4801                	li	a6,0
1c00815a:	a06d                	j	1c008204 <__udivdi3+0x168>
	  count_leading_zeros (bm, d0);
1c00815c:	01000737          	lui	a4,0x1000
1c008160:	46c1                	li	a3,16
1c008162:	f6e661e3          	bltu	a2,a4,1c0080c4 <__udivdi3+0x28>
1c008166:	46e1                	li	a3,24
1c008168:	bfb1                	j	1c0080c4 <__udivdi3+0x28>
	  if (d0 == 0)
1c00816a:	e601                	bnez	a2,1c008172 <__udivdi3+0xd6>
	    d0 = 1 / d0;	/* Divide intentionally by zero.  */
1c00816c:	4685                	li	a3,1
1c00816e:	02c6d7b3          	divu	a5,a3,a2
	  count_leading_zeros (bm, d0);
1c008172:	66c1                	lui	a3,0x10
1c008174:	08d7fb63          	bleu	a3,a5,1c00820a <__udivdi3+0x16e>
1c008178:	0ff00693          	li	a3,255
1c00817c:	00f6f363          	bleu	a5,a3,1c008182 <__udivdi3+0xe6>
1c008180:	4721                	li	a4,8
1c008182:	00e7d6b3          	srl	a3,a5,a4
1c008186:	9336                	add	t1,t1,a3
1c008188:	00034683          	lbu	a3,0(t1)
1c00818c:	02000613          	li	a2,32
1c008190:	96ba                	add	a3,a3,a4
1c008192:	8e15                	sub	a2,a2,a3
	  if (bm == 0)
1c008194:	e251                	bnez	a2,1c008218 <__udivdi3+0x17c>
	      n1 -= d0;
1c008196:	40f58733          	sub	a4,a1,a5
	      q1 = 1;
1c00819a:	4805                	li	a6,1
	  udiv_qrnnd (q0, n0, n1, n0, d0);
1c00819c:	0107d513          	srli	a0,a5,0x10
1c0081a0:	02a77633          	remu	a2,a4,a0
1c0081a4:	02a75733          	divu	a4,a4,a0
1c0081a8:	0642                	slli	a2,a2,0x10
1c0081aa:	1007d5b3          	p.exthz	a1,a5
1c0081ae:	0108d693          	srli	a3,a7,0x10
1c0081b2:	8ed1                	or	a3,a3,a2
1c0081b4:	02e58333          	mul	t1,a1,a4
1c0081b8:	863a                	mv	a2,a4
1c0081ba:	0066fc63          	bleu	t1,a3,1c0081d2 <__udivdi3+0x136>
1c0081be:	96be                	add	a3,a3,a5
1c0081c0:	fff70613          	addi	a2,a4,-1 # ffffff <__l1_heap_size+0xff0123>
1c0081c4:	00f6e763          	bltu	a3,a5,1c0081d2 <__udivdi3+0x136>
1c0081c8:	0066f563          	bleu	t1,a3,1c0081d2 <__udivdi3+0x136>
1c0081cc:	ffe70613          	addi	a2,a4,-2
1c0081d0:	96be                	add	a3,a3,a5
1c0081d2:	406686b3          	sub	a3,a3,t1
1c0081d6:	02a6f333          	remu	t1,a3,a0
1c0081da:	02a6d6b3          	divu	a3,a3,a0
1c0081de:	df0328b3          	p.insert	a7,t1,15,16
1c0081e2:	02d58733          	mul	a4,a1,a3
1c0081e6:	8536                	mv	a0,a3
1c0081e8:	00e8fb63          	bleu	a4,a7,1c0081fe <__udivdi3+0x162>
1c0081ec:	98be                	add	a7,a7,a5
1c0081ee:	fff68513          	addi	a0,a3,-1 # ffff <__l1_heap_size+0x123>
1c0081f2:	00f8e663          	bltu	a7,a5,1c0081fe <__udivdi3+0x162>
1c0081f6:	00e8f463          	bleu	a4,a7,1c0081fe <__udivdi3+0x162>
1c0081fa:	ffe68513          	addi	a0,a3,-2
1c0081fe:	01061793          	slli	a5,a2,0x10
1c008202:	8fc9                	or	a5,a5,a0
#ifdef L_udivdi3
UDWtype
__udivdi3 (UDWtype n, UDWtype d)
{
  return __udivmoddi4 (n, d, (UDWtype *) 0);
}
1c008204:	853e                	mv	a0,a5
1c008206:	85c2                	mv	a1,a6
1c008208:	8082                	ret
	  count_leading_zeros (bm, d0);
1c00820a:	010006b7          	lui	a3,0x1000
1c00820e:	4741                	li	a4,16
1c008210:	f6d7e9e3          	bltu	a5,a3,1c008182 <__udivdi3+0xe6>
1c008214:	4761                	li	a4,24
1c008216:	b7b5                	j	1c008182 <__udivdi3+0xe6>
	      d0 = d0 << bm;
1c008218:	00c797b3          	sll	a5,a5,a2
	      n2 = n1 >> b;
1c00821c:	00d5d333          	srl	t1,a1,a3
	      udiv_qrnnd (q1, n1, n2, n1, d0);
1c008220:	0107de13          	srli	t3,a5,0x10
	      n1 = (n1 << bm) | (n0 >> b);
1c008224:	00c59733          	sll	a4,a1,a2
	      n0 = n0 << bm;
1c008228:	00c518b3          	sll	a7,a0,a2
	      udiv_qrnnd (q1, n1, n2, n1, d0);
1c00822c:	03c37633          	remu	a2,t1,t3
	      n1 = (n1 << bm) | (n0 >> b);
1c008230:	00d555b3          	srl	a1,a0,a3
	      udiv_qrnnd (q1, n1, n2, n1, d0);
1c008234:	03c35533          	divu	a0,t1,t3
	      n1 = (n1 << bm) | (n0 >> b);
1c008238:	8dd9                	or	a1,a1,a4
	      udiv_qrnnd (q1, n1, n2, n1, d0);
1c00823a:	0642                	slli	a2,a2,0x10
1c00823c:	1007d733          	p.exthz	a4,a5
1c008240:	0105d693          	srli	a3,a1,0x10
1c008244:	02a70333          	mul	t1,a4,a0
1c008248:	8ed1                	or	a3,a3,a2
1c00824a:	882a                	mv	a6,a0
1c00824c:	0066fc63          	bleu	t1,a3,1c008264 <__udivdi3+0x1c8>
1c008250:	96be                	add	a3,a3,a5
1c008252:	fff50813          	addi	a6,a0,-1
1c008256:	00f6e763          	bltu	a3,a5,1c008264 <__udivdi3+0x1c8>
1c00825a:	0066f563          	bleu	t1,a3,1c008264 <__udivdi3+0x1c8>
1c00825e:	ffe50813          	addi	a6,a0,-2
1c008262:	96be                	add	a3,a3,a5
1c008264:	406686b3          	sub	a3,a3,t1
1c008268:	03c6f633          	remu	a2,a3,t3
1c00826c:	03c6d6b3          	divu	a3,a3,t3
1c008270:	df0625b3          	p.insert	a1,a2,15,16
1c008274:	02d70733          	mul	a4,a4,a3
1c008278:	8636                	mv	a2,a3
1c00827a:	00e5fc63          	bleu	a4,a1,1c008292 <__udivdi3+0x1f6>
1c00827e:	95be                	add	a1,a1,a5
1c008280:	fff68613          	addi	a2,a3,-1 # ffffff <__l1_heap_size+0xff0123>
1c008284:	00f5e763          	bltu	a1,a5,1c008292 <__udivdi3+0x1f6>
1c008288:	00e5f563          	bleu	a4,a1,1c008292 <__udivdi3+0x1f6>
1c00828c:	ffe68613          	addi	a2,a3,-2
1c008290:	95be                	add	a1,a1,a5
1c008292:	0842                	slli	a6,a6,0x10
1c008294:	40e58733          	sub	a4,a1,a4
1c008298:	00c86833          	or	a6,a6,a2
1c00829c:	b701                	j	1c00819c <__udivdi3+0x100>
      if (d1 > n1)
1c00829e:	12d5ea63          	bltu	a1,a3,1c0083d2 <__udivdi3+0x336>
	  count_leading_zeros (bm, d1);
1c0082a2:	67c1                	lui	a5,0x10
1c0082a4:	02f6fd63          	bleu	a5,a3,1c0082de <__udivdi3+0x242>
1c0082a8:	0ff00793          	li	a5,255
1c0082ac:	00d7b8b3          	sltu	a7,a5,a3
1c0082b0:	088e                	slli	a7,a7,0x3
1c0082b2:	1c001737          	lui	a4,0x1c001
1c0082b6:	0116d7b3          	srl	a5,a3,a7
1c0082ba:	86870713          	addi	a4,a4,-1944 # 1c000868 <__DTOR_END__>
1c0082be:	97ba                	add	a5,a5,a4
1c0082c0:	0007c783          	lbu	a5,0(a5) # 10000 <__l1_heap_size+0x124>
1c0082c4:	02000813          	li	a6,32
1c0082c8:	97c6                	add	a5,a5,a7
1c0082ca:	40f80833          	sub	a6,a6,a5
	  if (bm == 0)
1c0082ce:	00081f63          	bnez	a6,1c0082ec <__udivdi3+0x250>
		  q0 = 1;
1c0082d2:	4785                	li	a5,1
	      if (n1 > d1 || n0 >= d0)
1c0082d4:	f2b6e8e3          	bltu	a3,a1,1c008204 <__udivdi3+0x168>
1c0082d8:	04a637b3          	p.sletu	a5,a2,a0
1c0082dc:	b725                	j	1c008204 <__udivdi3+0x168>
	  count_leading_zeros (bm, d1);
1c0082de:	010007b7          	lui	a5,0x1000
1c0082e2:	48c1                	li	a7,16
1c0082e4:	fcf6e7e3          	bltu	a3,a5,1c0082b2 <__udivdi3+0x216>
1c0082e8:	48e1                	li	a7,24
1c0082ea:	b7e1                	j	1c0082b2 <__udivdi3+0x216>
	      d1 = (d1 << bm) | (d0 >> b);
1c0082ec:	00f658b3          	srl	a7,a2,a5
1c0082f0:	010696b3          	sll	a3,a3,a6
1c0082f4:	00d8e6b3          	or	a3,a7,a3
	      n2 = n1 >> b;
1c0082f8:	00f5d333          	srl	t1,a1,a5
	      udiv_qrnnd (q0, n1, n2, n1, d1);
1c0082fc:	0106de13          	srli	t3,a3,0x10
	      n1 = (n1 << bm) | (n0 >> b);
1c008300:	00f55733          	srl	a4,a0,a5
	      udiv_qrnnd (q0, n1, n2, n1, d1);
1c008304:	03c377b3          	remu	a5,t1,t3
	      n1 = (n1 << bm) | (n0 >> b);
1c008308:	010595b3          	sll	a1,a1,a6
	      udiv_qrnnd (q0, n1, n2, n1, d1);
1c00830c:	03c35333          	divu	t1,t1,t3
	      n1 = (n1 << bm) | (n0 >> b);
1c008310:	8f4d                	or	a4,a4,a1
	      udiv_qrnnd (q0, n1, n2, n1, d1);
1c008312:	07c2                	slli	a5,a5,0x10
1c008314:	1006d8b3          	p.exthz	a7,a3
1c008318:	01075593          	srli	a1,a4,0x10
1c00831c:	8ddd                	or	a1,a1,a5
1c00831e:	02688eb3          	mul	t4,a7,t1
	      d0 = d0 << bm;
1c008322:	01061633          	sll	a2,a2,a6
	      udiv_qrnnd (q0, n1, n2, n1, d1);
1c008326:	879a                	mv	a5,t1
1c008328:	01d5fc63          	bleu	t4,a1,1c008340 <__udivdi3+0x2a4>
1c00832c:	95b6                	add	a1,a1,a3
1c00832e:	fff30793          	addi	a5,t1,-1
1c008332:	00d5e763          	bltu	a1,a3,1c008340 <__udivdi3+0x2a4>
1c008336:	01d5f563          	bleu	t4,a1,1c008340 <__udivdi3+0x2a4>
1c00833a:	ffe30793          	addi	a5,t1,-2
1c00833e:	95b6                	add	a1,a1,a3
1c008340:	41d585b3          	sub	a1,a1,t4
1c008344:	03c5f333          	remu	t1,a1,t3
1c008348:	03c5d5b3          	divu	a1,a1,t3
1c00834c:	df032733          	p.insert	a4,t1,15,16
1c008350:	02b888b3          	mul	a7,a7,a1
1c008354:	832e                	mv	t1,a1
1c008356:	01177c63          	bleu	a7,a4,1c00836e <__udivdi3+0x2d2>
1c00835a:	9736                	add	a4,a4,a3
1c00835c:	fff58313          	addi	t1,a1,-1
1c008360:	00d76763          	bltu	a4,a3,1c00836e <__udivdi3+0x2d2>
1c008364:	01177563          	bleu	a7,a4,1c00836e <__udivdi3+0x2d2>
1c008368:	ffe58313          	addi	t1,a1,-2
1c00836c:	9736                	add	a4,a4,a3
1c00836e:	07c2                	slli	a5,a5,0x10
	      umul_ppmm (m1, m0, q0, d0);
1c008370:	6e41                	lui	t3,0x10
	      udiv_qrnnd (q0, n1, n2, n1, d1);
1c008372:	0067e7b3          	or	a5,a5,t1
	      umul_ppmm (m1, m0, q0, d0);
1c008376:	fffe0593          	addi	a1,t3,-1 # ffff <__l1_heap_size+0x123>
1c00837a:	00b7f6b3          	and	a3,a5,a1
	      udiv_qrnnd (q0, n1, n2, n1, d1);
1c00837e:	41170733          	sub	a4,a4,a7
	      umul_ppmm (m1, m0, q0, d0);
1c008382:	8df1                	and	a1,a1,a2
1c008384:	0107d893          	srli	a7,a5,0x10
1c008388:	02b68333          	mul	t1,a3,a1
1c00838c:	02b885b3          	mul	a1,a7,a1
1c008390:	8241                	srli	a2,a2,0x10
1c008392:	8eae                	mv	t4,a1
1c008394:	42c68eb3          	p.mac	t4,a3,a2
1c008398:	01035693          	srli	a3,t1,0x10
1c00839c:	96f6                	add	a3,a3,t4
1c00839e:	02c888b3          	mul	a7,a7,a2
1c0083a2:	00b6f363          	bleu	a1,a3,1c0083a8 <__udivdi3+0x30c>
1c0083a6:	98f2                	add	a7,a7,t3
1c0083a8:	0106d613          	srli	a2,a3,0x10
1c0083ac:	98b2                	add	a7,a7,a2
	      if (m1 > n1 || (m1 == n1 && m0 > n0))
1c0083ae:	03176063          	bltu	a4,a7,1c0083ce <__udivdi3+0x332>
1c0083b2:	db1713e3          	bne	a4,a7,1c008158 <__udivdi3+0xbc>
	      umul_ppmm (m1, m0, q0, d0);
1c0083b6:	6741                	lui	a4,0x10
1c0083b8:	177d                	addi	a4,a4,-1
1c0083ba:	8ef9                	and	a3,a3,a4
1c0083bc:	06c2                	slli	a3,a3,0x10
1c0083be:	00e37333          	and	t1,t1,a4
	      n0 = n0 << bm;
1c0083c2:	01051533          	sll	a0,a0,a6
	      umul_ppmm (m1, m0, q0, d0);
1c0083c6:	969a                	add	a3,a3,t1
	      q1 = 0;
1c0083c8:	4801                	li	a6,0
	      if (m1 > n1 || (m1 == n1 && m0 > n0))
1c0083ca:	e2d57de3          	bleu	a3,a0,1c008204 <__udivdi3+0x168>
		  q0--;
1c0083ce:	17fd                	addi	a5,a5,-1
1c0083d0:	b361                	j	1c008158 <__udivdi3+0xbc>
	  q1 = 0;
1c0083d2:	4801                	li	a6,0
	  q0 = 0;
1c0083d4:	4781                	li	a5,0
1c0083d6:	b53d                	j	1c008204 <__udivdi3+0x168>

1c0083d8 <__umoddi3>:
  d0 = dd.s.low;
1c0083d8:	88b2                	mv	a7,a2
  d1 = dd.s.high;
1c0083da:	8736                	mv	a4,a3
  n0 = nn.s.low;
1c0083dc:	87aa                	mv	a5,a0
  n1 = nn.s.high;
1c0083de:	882e                	mv	a6,a1
  if (d1 == 0)
1c0083e0:	1a069963          	bnez	a3,1c008592 <__umoddi3+0x1ba>
1c0083e4:	1c0016b7          	lui	a3,0x1c001
1c0083e8:	86868693          	addi	a3,a3,-1944 # 1c000868 <__DTOR_END__>
      if (d0 > n1)
1c0083ec:	0ac5f463          	bleu	a2,a1,1c008494 <__umoddi3+0xbc>
	  count_leading_zeros (bm, d0);
1c0083f0:	6341                	lui	t1,0x10
1c0083f2:	08667a63          	bleu	t1,a2,1c008486 <__umoddi3+0xae>
1c0083f6:	0ff00313          	li	t1,255
1c0083fa:	00c37363          	bleu	a2,t1,1c008400 <__umoddi3+0x28>
1c0083fe:	4721                	li	a4,8
1c008400:	00e65333          	srl	t1,a2,a4
1c008404:	969a                	add	a3,a3,t1
1c008406:	0006c683          	lbu	a3,0(a3)
1c00840a:	02000313          	li	t1,32
1c00840e:	9736                	add	a4,a4,a3
1c008410:	40e30333          	sub	t1,t1,a4
	  if (bm != 0)
1c008414:	00030c63          	beqz	t1,1c00842c <__umoddi3+0x54>
	      n1 = (n1 << bm) | (n0 >> (W_TYPE_SIZE - bm));
1c008418:	006595b3          	sll	a1,a1,t1
1c00841c:	00e55733          	srl	a4,a0,a4
	      d0 = d0 << bm;
1c008420:	006618b3          	sll	a7,a2,t1
	      n1 = (n1 << bm) | (n0 >> (W_TYPE_SIZE - bm));
1c008424:	00b76833          	or	a6,a4,a1
	      n0 = n0 << bm;
1c008428:	006517b3          	sll	a5,a0,t1
	  udiv_qrnnd (q0, n0, n1, n0, d0);
1c00842c:	0108d613          	srli	a2,a7,0x10
1c008430:	02c87733          	remu	a4,a6,a2
1c008434:	02c85833          	divu	a6,a6,a2
1c008438:	1008d533          	p.exthz	a0,a7
1c00843c:	0742                	slli	a4,a4,0x10
1c00843e:	0107d693          	srli	a3,a5,0x10
1c008442:	03050833          	mul	a6,a0,a6
1c008446:	8ed9                	or	a3,a3,a4
1c008448:	0106f863          	bleu	a6,a3,1c008458 <__umoddi3+0x80>
1c00844c:	96c6                	add	a3,a3,a7
1c00844e:	0116e563          	bltu	a3,a7,1c008458 <__umoddi3+0x80>
1c008452:	0106f363          	bleu	a6,a3,1c008458 <__umoddi3+0x80>
1c008456:	96c6                	add	a3,a3,a7
1c008458:	410686b3          	sub	a3,a3,a6
1c00845c:	02c6f733          	remu	a4,a3,a2
1c008460:	02c6d6b3          	divu	a3,a3,a2
1c008464:	df0727b3          	p.insert	a5,a4,15,16
1c008468:	02d506b3          	mul	a3,a0,a3
1c00846c:	00d7f863          	bleu	a3,a5,1c00847c <__umoddi3+0xa4>
1c008470:	97c6                	add	a5,a5,a7
1c008472:	0117e563          	bltu	a5,a7,1c00847c <__umoddi3+0xa4>
1c008476:	00d7f363          	bleu	a3,a5,1c00847c <__umoddi3+0xa4>
1c00847a:	97c6                	add	a5,a5,a7
1c00847c:	8f95                	sub	a5,a5,a3
	  rr.s.low = n0 >> bm;
1c00847e:	0067d533          	srl	a0,a5,t1
	  *rp = rr.ll;
1c008482:	4581                	li	a1,0
}
1c008484:	8082                	ret
	  count_leading_zeros (bm, d0);
1c008486:	01000337          	lui	t1,0x1000
1c00848a:	4741                	li	a4,16
1c00848c:	f6666ae3          	bltu	a2,t1,1c008400 <__umoddi3+0x28>
1c008490:	4761                	li	a4,24
1c008492:	b7bd                	j	1c008400 <__umoddi3+0x28>
	  if (d0 == 0)
1c008494:	e601                	bnez	a2,1c00849c <__umoddi3+0xc4>
	    d0 = 1 / d0;	/* Divide intentionally by zero.  */
1c008496:	4605                	li	a2,1
1c008498:	031658b3          	divu	a7,a2,a7
	  count_leading_zeros (bm, d0);
1c00849c:	6641                	lui	a2,0x10
1c00849e:	06c8ff63          	bleu	a2,a7,1c00851c <__umoddi3+0x144>
1c0084a2:	0ff00613          	li	a2,255
1c0084a6:	01167363          	bleu	a7,a2,1c0084ac <__umoddi3+0xd4>
1c0084aa:	4721                	li	a4,8
1c0084ac:	00e8d633          	srl	a2,a7,a4
1c0084b0:	96b2                	add	a3,a3,a2
1c0084b2:	0006c603          	lbu	a2,0(a3)
1c0084b6:	02000313          	li	t1,32
1c0084ba:	963a                	add	a2,a2,a4
1c0084bc:	40c30333          	sub	t1,t1,a2
	  if (bm == 0)
1c0084c0:	06031563          	bnez	t1,1c00852a <__umoddi3+0x152>
	      n1 -= d0;
1c0084c4:	411585b3          	sub	a1,a1,a7
	  udiv_qrnnd (q0, n0, n1, n0, d0);
1c0084c8:	0108d713          	srli	a4,a7,0x10
1c0084cc:	02e5f6b3          	remu	a3,a1,a4
1c0084d0:	02e5d5b3          	divu	a1,a1,a4
1c0084d4:	1008d533          	p.exthz	a0,a7
1c0084d8:	06c2                	slli	a3,a3,0x10
1c0084da:	0107d613          	srli	a2,a5,0x10
1c0084de:	02b505b3          	mul	a1,a0,a1
1c0084e2:	8ed1                	or	a3,a3,a2
1c0084e4:	00b6f863          	bleu	a1,a3,1c0084f4 <__umoddi3+0x11c>
1c0084e8:	96c6                	add	a3,a3,a7
1c0084ea:	0116e563          	bltu	a3,a7,1c0084f4 <__umoddi3+0x11c>
1c0084ee:	00b6f363          	bleu	a1,a3,1c0084f4 <__umoddi3+0x11c>
1c0084f2:	96c6                	add	a3,a3,a7
1c0084f4:	40b685b3          	sub	a1,a3,a1
1c0084f8:	02e5f6b3          	remu	a3,a1,a4
1c0084fc:	02e5d5b3          	divu	a1,a1,a4
1c008500:	df06a7b3          	p.insert	a5,a3,15,16
1c008504:	02b505b3          	mul	a1,a0,a1
1c008508:	00b7f863          	bleu	a1,a5,1c008518 <__umoddi3+0x140>
1c00850c:	97c6                	add	a5,a5,a7
1c00850e:	0117e563          	bltu	a5,a7,1c008518 <__umoddi3+0x140>
1c008512:	00b7f363          	bleu	a1,a5,1c008518 <__umoddi3+0x140>
1c008516:	97c6                	add	a5,a5,a7
1c008518:	8f8d                	sub	a5,a5,a1
1c00851a:	b795                	j	1c00847e <__umoddi3+0xa6>
	  count_leading_zeros (bm, d0);
1c00851c:	01000637          	lui	a2,0x1000
1c008520:	4741                	li	a4,16
1c008522:	f8c8e5e3          	bltu	a7,a2,1c0084ac <__umoddi3+0xd4>
1c008526:	4761                	li	a4,24
1c008528:	b751                	j	1c0084ac <__umoddi3+0xd4>
	      d0 = d0 << bm;
1c00852a:	006898b3          	sll	a7,a7,t1
	      n2 = n1 >> b;
1c00852e:	00c5d733          	srl	a4,a1,a2
	      n0 = n0 << bm;
1c008532:	006517b3          	sll	a5,a0,t1
	      n1 = (n1 << bm) | (n0 >> b);
1c008536:	00c55633          	srl	a2,a0,a2
1c00853a:	006595b3          	sll	a1,a1,t1
	      udiv_qrnnd (q1, n1, n2, n1, d0);
1c00853e:	0108d513          	srli	a0,a7,0x10
	      n1 = (n1 << bm) | (n0 >> b);
1c008542:	8dd1                	or	a1,a1,a2
	      udiv_qrnnd (q1, n1, n2, n1, d0);
1c008544:	02a77633          	remu	a2,a4,a0
1c008548:	02a75733          	divu	a4,a4,a0
1c00854c:	1008d833          	p.exthz	a6,a7
1c008550:	0642                	slli	a2,a2,0x10
1c008552:	0105d693          	srli	a3,a1,0x10
1c008556:	02e80733          	mul	a4,a6,a4
1c00855a:	8ed1                	or	a3,a3,a2
1c00855c:	00e6f863          	bleu	a4,a3,1c00856c <__umoddi3+0x194>
1c008560:	96c6                	add	a3,a3,a7
1c008562:	0116e563          	bltu	a3,a7,1c00856c <__umoddi3+0x194>
1c008566:	00e6f363          	bleu	a4,a3,1c00856c <__umoddi3+0x194>
1c00856a:	96c6                	add	a3,a3,a7
1c00856c:	8e99                	sub	a3,a3,a4
1c00856e:	02a6f733          	remu	a4,a3,a0
1c008572:	02a6d6b3          	divu	a3,a3,a0
1c008576:	df0725b3          	p.insert	a1,a4,15,16
1c00857a:	02d806b3          	mul	a3,a6,a3
1c00857e:	00d5f863          	bleu	a3,a1,1c00858e <__umoddi3+0x1b6>
1c008582:	95c6                	add	a1,a1,a7
1c008584:	0115e563          	bltu	a1,a7,1c00858e <__umoddi3+0x1b6>
1c008588:	00d5f363          	bleu	a3,a1,1c00858e <__umoddi3+0x1b6>
1c00858c:	95c6                	add	a1,a1,a7
1c00858e:	8d95                	sub	a1,a1,a3
1c008590:	bf25                	j	1c0084c8 <__umoddi3+0xf0>
      if (d1 > n1)
1c008592:	eed5e9e3          	bltu	a1,a3,1c008484 <__umoddi3+0xac>
	  count_leading_zeros (bm, d1);
1c008596:	6741                	lui	a4,0x10
1c008598:	04e6f563          	bleu	a4,a3,1c0085e2 <__umoddi3+0x20a>
1c00859c:	0ff00e93          	li	t4,255
1c0085a0:	00deb733          	sltu	a4,t4,a3
1c0085a4:	070e                	slli	a4,a4,0x3
1c0085a6:	1c001337          	lui	t1,0x1c001
1c0085aa:	00e6d8b3          	srl	a7,a3,a4
1c0085ae:	86830313          	addi	t1,t1,-1944 # 1c000868 <__DTOR_END__>
1c0085b2:	989a                	add	a7,a7,t1
1c0085b4:	0008ce83          	lbu	t4,0(a7)
1c0085b8:	02000e13          	li	t3,32
1c0085bc:	9eba                	add	t4,t4,a4
1c0085be:	41de0e33          	sub	t3,t3,t4
	  if (bm == 0)
1c0085c2:	020e1763          	bnez	t3,1c0085f0 <__umoddi3+0x218>
	      if (n1 > d1 || n0 >= d0)
1c0085c6:	00b6e463          	bltu	a3,a1,1c0085ce <__umoddi3+0x1f6>
1c0085ca:	00c56963          	bltu	a0,a2,1c0085dc <__umoddi3+0x204>
		  sub_ddmmss (n1, n0, n1, n0, d1, d0);
1c0085ce:	40c507b3          	sub	a5,a0,a2
1c0085d2:	8d95                	sub	a1,a1,a3
1c0085d4:	00f53533          	sltu	a0,a0,a5
1c0085d8:	40a58833          	sub	a6,a1,a0
		  *rp = rr.ll;
1c0085dc:	853e                	mv	a0,a5
1c0085de:	85c2                	mv	a1,a6
1c0085e0:	b555                	j	1c008484 <__umoddi3+0xac>
	  count_leading_zeros (bm, d1);
1c0085e2:	010008b7          	lui	a7,0x1000
1c0085e6:	4741                	li	a4,16
1c0085e8:	fb16efe3          	bltu	a3,a7,1c0085a6 <__umoddi3+0x1ce>
1c0085ec:	4761                	li	a4,24
1c0085ee:	bf65                	j	1c0085a6 <__umoddi3+0x1ce>
	      d1 = (d1 << bm) | (d0 >> b);
1c0085f0:	01d65733          	srl	a4,a2,t4
1c0085f4:	01c696b3          	sll	a3,a3,t3
1c0085f8:	8ed9                	or	a3,a3,a4
	      n2 = n1 >> b;
1c0085fa:	01d5d7b3          	srl	a5,a1,t4
	      udiv_qrnnd (q0, n1, n2, n1, d1);
1c0085fe:	0106d813          	srli	a6,a3,0x10
1c008602:	0307f333          	remu	t1,a5,a6
	      n1 = (n1 << bm) | (n0 >> b);
1c008606:	01d558b3          	srl	a7,a0,t4
	      udiv_qrnnd (q0, n1, n2, n1, d1);
1c00860a:	0307d7b3          	divu	a5,a5,a6
	      n1 = (n1 << bm) | (n0 >> b);
1c00860e:	01c595b3          	sll	a1,a1,t3
1c008612:	00b8e5b3          	or	a1,a7,a1
	      udiv_qrnnd (q0, n1, n2, n1, d1);
1c008616:	0342                	slli	t1,t1,0x10
1c008618:	1006d733          	p.exthz	a4,a3
1c00861c:	0105d893          	srli	a7,a1,0x10
1c008620:	011368b3          	or	a7,t1,a7
1c008624:	02f70f33          	mul	t5,a4,a5
	      d0 = d0 << bm;
1c008628:	01c61633          	sll	a2,a2,t3
	      n0 = n0 << bm;
1c00862c:	01c51533          	sll	a0,a0,t3
	      udiv_qrnnd (q0, n1, n2, n1, d1);
1c008630:	833e                	mv	t1,a5
1c008632:	01e8fc63          	bleu	t5,a7,1c00864a <__umoddi3+0x272>
1c008636:	98b6                	add	a7,a7,a3
1c008638:	fff78313          	addi	t1,a5,-1 # ffffff <__l1_heap_size+0xff0123>
1c00863c:	00d8e763          	bltu	a7,a3,1c00864a <__umoddi3+0x272>
1c008640:	01e8f563          	bleu	t5,a7,1c00864a <__umoddi3+0x272>
1c008644:	ffe78313          	addi	t1,a5,-2
1c008648:	98b6                	add	a7,a7,a3
1c00864a:	41e888b3          	sub	a7,a7,t5
1c00864e:	0308f7b3          	remu	a5,a7,a6
1c008652:	0308d8b3          	divu	a7,a7,a6
1c008656:	df07a5b3          	p.insert	a1,a5,15,16
1c00865a:	03170733          	mul	a4,a4,a7
1c00865e:	87c6                	mv	a5,a7
1c008660:	00e5fc63          	bleu	a4,a1,1c008678 <__umoddi3+0x2a0>
1c008664:	95b6                	add	a1,a1,a3
1c008666:	fff88793          	addi	a5,a7,-1 # ffffff <__l1_heap_size+0xff0123>
1c00866a:	00d5e763          	bltu	a1,a3,1c008678 <__umoddi3+0x2a0>
1c00866e:	00e5f563          	bleu	a4,a1,1c008678 <__umoddi3+0x2a0>
1c008672:	ffe88793          	addi	a5,a7,-2
1c008676:	95b6                	add	a1,a1,a3
1c008678:	0342                	slli	t1,t1,0x10
	      umul_ppmm (m1, m0, q0, d0);
1c00867a:	6f41                	lui	t5,0x10
	      udiv_qrnnd (q0, n1, n2, n1, d1);
1c00867c:	00f36333          	or	t1,t1,a5
	      umul_ppmm (m1, m0, q0, d0);
1c008680:	ffff0793          	addi	a5,t5,-1 # ffff <__l1_heap_size+0x123>
1c008684:	00f37833          	and	a6,t1,a5
1c008688:	01035313          	srli	t1,t1,0x10
1c00868c:	8ff1                	and	a5,a5,a2
1c00868e:	02f808b3          	mul	a7,a6,a5
1c008692:	02f307b3          	mul	a5,t1,a5
	      udiv_qrnnd (q0, n1, n2, n1, d1);
1c008696:	8d99                	sub	a1,a1,a4
1c008698:	8fbe                	mv	t6,a5
	      umul_ppmm (m1, m0, q0, d0);
1c00869a:	01065713          	srli	a4,a2,0x10
1c00869e:	42e80fb3          	p.mac	t6,a6,a4
1c0086a2:	0108d813          	srli	a6,a7,0x10
1c0086a6:	987e                	add	a6,a6,t6
1c0086a8:	02e30333          	mul	t1,t1,a4
1c0086ac:	00f87363          	bleu	a5,a6,1c0086b2 <__umoddi3+0x2da>
1c0086b0:	937a                	add	t1,t1,t5
1c0086b2:	01085713          	srli	a4,a6,0x10
1c0086b6:	933a                	add	t1,t1,a4
1c0086b8:	6741                	lui	a4,0x10
1c0086ba:	177d                	addi	a4,a4,-1
1c0086bc:	00e87833          	and	a6,a6,a4
1c0086c0:	0842                	slli	a6,a6,0x10
1c0086c2:	00e8f733          	and	a4,a7,a4
1c0086c6:	9742                	add	a4,a4,a6
	      if (m1 > n1 || (m1 == n1 && m0 > n0))
1c0086c8:	0065e663          	bltu	a1,t1,1c0086d4 <__umoddi3+0x2fc>
1c0086cc:	00659d63          	bne	a1,t1,1c0086e6 <__umoddi3+0x30e>
1c0086d0:	00e57b63          	bleu	a4,a0,1c0086e6 <__umoddi3+0x30e>
		  sub_ddmmss (m1, m0, m1, m0, d1, d0);
1c0086d4:	40c70633          	sub	a2,a4,a2
1c0086d8:	00c73733          	sltu	a4,a4,a2
1c0086dc:	40d30333          	sub	t1,t1,a3
1c0086e0:	40e30333          	sub	t1,t1,a4
1c0086e4:	8732                	mv	a4,a2
		  sub_ddmmss (n1, n0, n1, n0, m1, m0);
1c0086e6:	40e50733          	sub	a4,a0,a4
1c0086ea:	00e53533          	sltu	a0,a0,a4
1c0086ee:	406585b3          	sub	a1,a1,t1
1c0086f2:	8d89                	sub	a1,a1,a0
		  rr.s.low = (n1 << b) | (n0 >> bm);
1c0086f4:	01d597b3          	sll	a5,a1,t4
1c0086f8:	01c75733          	srl	a4,a4,t3
		  *rp = rr.ll;
1c0086fc:	00e7e533          	or	a0,a5,a4
1c008700:	01c5d5b3          	srl	a1,a1,t3
  return w;
1c008704:	b341                	j	1c008484 <__umoddi3+0xac>

1c008706 <print_matrix.constprop.1>:
PI_L1 int32_t golden[DOT_M * DOT_N]   = GOLDEN_DATA;

/* -------------------------------------------------------------------
 * print_matrix — helper to dump a matrix to the console
 * ------------------------------------------------------------------- */
static void print_matrix(const char *name, const int32_t *mat,
1c008706:	1101                	addi	sp,sp,-32
1c008708:	cc22                	sw	s0,24(sp)
1c00870a:	842e                	mv	s0,a1
                         int rows, int cols)
{
    printf("  %s (%d x %d):\n", name, rows, cols);
1c00870c:	85aa                	mv	a1,a0
1c00870e:	1c001537          	lui	a0,0x1c001
1c008712:	4691                	li	a3,4
1c008714:	4611                	li	a2,4
1c008716:	c2050513          	addi	a0,a0,-992 # 1c000c20 <__DTOR_END__+0x3b8>
static void print_matrix(const char *name, const int32_t *mat,
1c00871a:	c84a                	sw	s2,16(sp)
1c00871c:	c64e                	sw	s3,12(sp)
1c00871e:	c452                	sw	s4,8(sp)
1c008720:	c256                	sw	s5,4(sp)
1c008722:	ce06                	sw	ra,28(sp)
1c008724:	ca26                	sw	s1,20(sp)
1c008726:	04040a93          	addi	s5,s0,64
    printf("  %s (%d x %d):\n", name, rows, cols);
1c00872a:	29ad                	jal	1c008ba4 <printf>
1c00872c:	1c001a37          	lui	s4,0x1c001
1c008730:	1c001937          	lui	s2,0x1c001
1c008734:	1c0019b7          	lui	s3,0x1c001
    for (int i = 0; i < rows; i++) {
        printf("    [");
1c008738:	c34a0513          	addi	a0,s4,-972 # 1c000c34 <__DTOR_END__+0x3cc>
1c00873c:	21a5                	jal	1c008ba4 <printf>
1c00873e:	01040493          	addi	s1,s0,16
        for (int j = 0; j < cols; j++) {
            printf(" %4d", mat[i * cols + j]);
1c008742:	0044258b          	p.lw	a1,4(s0!)
1c008746:	c3c90513          	addi	a0,s2,-964 # 1c000c3c <__DTOR_END__+0x3d4>
1c00874a:	29a9                	jal	1c008ba4 <printf>
        for (int j = 0; j < cols; j++) {
1c00874c:	fe941be3          	bne	s0,s1,1c008742 <print_matrix.constprop.1+0x3c>
        }
        printf(" ]\n");
1c008750:	c4498513          	addi	a0,s3,-956 # 1c000c44 <__DTOR_END__+0x3dc>
1c008754:	2641                	jal	1c008ad4 <puts>
    for (int i = 0; i < rows; i++) {
1c008756:	ff5411e3          	bne	s0,s5,1c008738 <print_matrix.constprop.1+0x32>
    }
}
1c00875a:	40f2                	lw	ra,28(sp)
1c00875c:	4462                	lw	s0,24(sp)
1c00875e:	44d2                	lw	s1,20(sp)
1c008760:	4942                	lw	s2,16(sp)
1c008762:	49b2                	lw	s3,12(sp)
1c008764:	4a22                	lw	s4,8(sp)
1c008766:	4a92                	lw	s5,4(sp)
1c008768:	6105                	addi	sp,sp,32
1c00876a:	8082                	ret

1c00876c <cluster_entry>:
/* -------------------------------------------------------------------
 * cluster_entry — runs on cluster core 0
 * ------------------------------------------------------------------- */
void cluster_entry(void *arg)
{
    printf("\n============================================\n");
1c00876c:	1c001537          	lui	a0,0x1c001
{
1c008770:	1101                	addi	sp,sp,-32
    printf("\n============================================\n");
1c008772:	96850513          	addi	a0,a0,-1688 # 1c000968 <__DTOR_END__+0x100>
{
1c008776:	ce06                	sw	ra,28(sp)
1c008778:	cc22                	sw	s0,24(sp)
1c00877a:	ca26                	sw	s1,20(sp)
1c00877c:	c84a                	sw	s2,16(sp)
1c00877e:	c64e                	sw	s3,12(sp)
1c008780:	c452                	sw	s4,8(sp)
1c008782:	c256                	sw	s5,4(sp)
    printf("\n============================================\n");
1c008784:	2e81                	jal	1c008ad4 <puts>
    printf("[lemon_dot] Matrix multiply C = A x B\n");
1c008786:	1c001537          	lui	a0,0x1c001
1c00878a:	99850513          	addi	a0,a0,-1640 # 1c000998 <__DTOR_END__+0x130>
1c00878e:	2699                	jal	1c008ad4 <puts>
    printf("[lemon_dot] Dimensions: (%d x %d) * (%d x %d) -> (%d x %d)\n",
1c008790:	1c001537          	lui	a0,0x1c001
1c008794:	4811                	li	a6,4
1c008796:	4691                	li	a3,4
1c008798:	4611                	li	a2,4
1c00879a:	4791                	li	a5,4
1c00879c:	4711                	li	a4,4
1c00879e:	4591                	li	a1,4
1c0087a0:	9c050513          	addi	a0,a0,-1600 # 1c0009c0 <__DTOR_END__+0x158>
1c0087a4:	2101                	jal	1c008ba4 <printf>
           DOT_M, DOT_K, DOT_K, DOT_N, DOT_M, DOT_N);
    printf("============================================\n\n");
1c0087a6:	1c001537          	lui	a0,0x1c001
1c0087aa:	9fc50513          	addi	a0,a0,-1540 # 1c0009fc <__DTOR_END__+0x194>
1c0087ae:	261d                	jal	1c008ad4 <puts>

    /* -- Show inputs -- */
    print_matrix("A", matrix_a, DOT_M, DOT_K);
1c0087b0:	10000a37          	lui	s4,0x10000
1c0087b4:	1c001537          	lui	a0,0x1c001
1c0087b8:	01ca0593          	addi	a1,s4,28 # 1000001c <matrix_a>
1c0087bc:	a2c50513          	addi	a0,a0,-1492 # 1c000a2c <__DTOR_END__+0x1c4>
1c0087c0:	3799                	jal	1c008706 <print_matrix.constprop.1>
1c0087c2:	01ca0993          	addi	s3,s4,28
    print_matrix("B", matrix_b, DOT_K, DOT_N);
1c0087c6:	04098913          	addi	s2,s3,64
1c0087ca:	1c001537          	lui	a0,0x1c001
1c0087ce:	85ca                	mv	a1,s2
1c0087d0:	9bc50513          	addi	a0,a0,-1604 # 1c0009bc <__DTOR_END__+0x154>
}

/* ---- Job-specific helpers: matrix pointers ---- */

static inline void lemon_dot_set_a_ptr(unsigned int addr) {
    HWPE_WRITE(addr, LEMON_DOT_REG_OFFS + LEMON_DOT_REG_A_PTR);
1c0087d4:	10201437          	lui	s0,0x10201
1c0087d8:	373d                	jal	1c008706 <print_matrix.constprop.1>
1c0087da:	04040793          	addi	a5,s0,64 # 10201040 <__l1_end+0x200f1c>
1c0087de:	0137a023          	sw	s3,0(a5)
}

static inline void lemon_dot_set_b_ptr(unsigned int addr) {
    HWPE_WRITE(addr, LEMON_DOT_REG_OFFS + LEMON_DOT_REG_B_PTR);
1c0087e2:	04440793          	addi	a5,s0,68
1c0087e6:	0127a023          	sw	s2,0(a5)
     * the HWPE's MMIO address space.  The HWPE latches the values
     * into its internal register file and uses them when triggered.
     * ------------------------------------------------------------------ */
    lemon_dot_set_a_ptr((unsigned int)(uintptr_t)matrix_a);
    lemon_dot_set_b_ptr((unsigned int)(uintptr_t)matrix_b);
    lemon_dot_set_c_ptr((unsigned int)(uintptr_t)matrix_c);
1c0087ea:	08098493          	addi	s1,s3,128
}

static inline void lemon_dot_set_c_ptr(unsigned int addr) {
    HWPE_WRITE(addr, LEMON_DOT_REG_OFFS + LEMON_DOT_REG_C_PTR);
1c0087ee:	04840793          	addi	a5,s0,72
1c0087f2:	c384                	sw	s1,0(a5)
}

/* ---- Job-specific helpers: matrix dimensions ---- */

static inline void lemon_dot_set_m(unsigned int m) {
    HWPE_WRITE(m, LEMON_DOT_REG_OFFS + LEMON_DOT_REG_M_SIZE);
1c0087f4:	04c40713          	addi	a4,s0,76
1c0087f8:	4791                	li	a5,4
1c0087fa:	c31c                	sw	a5,0(a4)
}

static inline void lemon_dot_set_k(unsigned int k) {
    HWPE_WRITE(k, LEMON_DOT_REG_OFFS + LEMON_DOT_REG_K_SIZE);
1c0087fc:	05040713          	addi	a4,s0,80
1c008800:	c31c                	sw	a5,0(a4)
    lemon_dot_set_m(DOT_M);
    lemon_dot_set_k(DOT_K);
    lemon_dot_set_n(DOT_N);

    printf("[lemon_dot] HWPE registers programmed\n");
1c008802:	1c001537          	lui	a0,0x1c001
}

static inline void lemon_dot_set_n(unsigned int n) {
    HWPE_WRITE(n, LEMON_DOT_REG_OFFS + LEMON_DOT_REG_N_SIZE);
1c008806:	05440713          	addi	a4,s0,84
1c00880a:	c31c                	sw	a5,0(a4)
1c00880c:	a3050513          	addi	a0,a0,-1488 # 1c000a30 <__DTOR_END__+0x1c8>
1c008810:	24d1                	jal	1c008ad4 <puts>
    printf("[lemon_dot]   A_PTR = 0x%08x\n", (unsigned int)(uintptr_t)matrix_a);
1c008812:	1c001537          	lui	a0,0x1c001
1c008816:	01ca0593          	addi	a1,s4,28
1c00881a:	a5850513          	addi	a0,a0,-1448 # 1c000a58 <__DTOR_END__+0x1f0>
1c00881e:	2659                	jal	1c008ba4 <printf>
    printf("[lemon_dot]   B_PTR = 0x%08x\n", (unsigned int)(uintptr_t)matrix_b);
1c008820:	1c001537          	lui	a0,0x1c001
1c008824:	85ca                	mv	a1,s2
1c008826:	a7850513          	addi	a0,a0,-1416 # 1c000a78 <__DTOR_END__+0x210>
1c00882a:	2ead                	jal	1c008ba4 <printf>
    printf("[lemon_dot]   C_PTR = 0x%08x\n", (unsigned int)(uintptr_t)matrix_c);
1c00882c:	1c001537          	lui	a0,0x1c001
1c008830:	85a6                	mv	a1,s1
1c008832:	a9850513          	addi	a0,a0,-1384 # 1c000a98 <__DTOR_END__+0x230>
1c008836:	26bd                	jal	1c008ba4 <printf>
    printf("[lemon_dot]   M=%d  K=%d  N=%d\n\n", DOT_M, DOT_K, DOT_N);
1c008838:	1c001537          	lui	a0,0x1c001
1c00883c:	4691                	li	a3,4
1c00883e:	4611                	li	a2,4
1c008840:	4591                	li	a1,4
1c008842:	ab850513          	addi	a0,a0,-1352 # 1c000ab8 <__DTOR_END__+0x250>
1c008846:	2eb9                	jal	1c008ba4 <printf>
     * eu_evt_maskWaitAndClr() compiles to a `p.elw` instruction.
     * The core goes to sleep (clock-gated) until the event unit
     * receives IRQ #12 (LEMON_DOT_EVT0), which the HWPE asserts
     * after writing the last element of C.
     * ------------------------------------------------------------------ */
    printf("[lemon_dot] Triggering HWPE...\n");
1c008848:	1c001537          	lui	a0,0x1c001
1c00884c:	adc50513          	addi	a0,a0,-1316 # 1c000adc <__DTOR_END__+0x274>
1c008850:	2451                	jal	1c008ad4 <puts>
  This is useful when the mask must be updated before waiting for a specific event without modifying the other events (this saves a few instructions)
  \param evtMask Bit mask used to update the event mask. There is 1 bit per event, 1 means the corresponding bit is set in the event mask.
  */
static inline void eu_evt_maskSet(unsigned int evtMask)
{
  ARCHI_WRITE(ARCHI_EU_DEMUX_ADDR, EU_CORE_MASK_OR, evtMask);
1c008852:	6705                	lui	a4,0x1
1c008854:	002047b7          	lui	a5,0x204
    HWPE_WRITE(0, LEMON_DOT_TRIGGER);
1c008858:	00042023          	sw	zero,0(s0)
1c00885c:	00e7a423          	sw	a4,8(a5) # 204008 <__l1_heap_size+0x1f412c>
  value = pulp_read32(base + offset);
1c008860:	03c78693          	addi	a3,a5,60
1c008864:	4294                	lw	a3,0(a3)
  This is the opposite of eu_evt_maskSet. For each bit at 1 in the new value, the corresponding bit is set to 0 in the event mask and the others remain the same.
  \param evtMask Bit mask used to update the event mask. There is 1 bit per event, 1 means the corresponding bit is cleared in the event mask.
  */
static inline void eu_evt_maskClr(unsigned int evtMask)
{
  ARCHI_WRITE(ARCHI_EU_DEMUX_ADDR, EU_CORE_MASK_AND, evtMask);
1c008866:	00e7a223          	sw	a4,4(a5)
    hwpe_trigger_job();
    eu_evt_maskWaitAndClr(1 << LEMON_DOT_EVT0);
    printf("[lemon_dot] HWPE finished!\n\n");
1c00886a:	1c001537          	lui	a0,0x1c001
1c00886e:	afc50513          	addi	a0,a0,-1284 # 1c000afc <__DTOR_END__+0x294>
1c008872:	248d                	jal	1c008ad4 <puts>

    /* -- Show result -- */
    print_matrix("C (computed)", matrix_c, DOT_M, DOT_N);
1c008874:	1c001537          	lui	a0,0x1c001
1c008878:	85a6                	mv	a1,s1
1c00887a:	b1850513          	addi	a0,a0,-1256 # 1c000b18 <__DTOR_END__+0x2b0>
1c00887e:	3561                	jal	1c008706 <print_matrix.constprop.1>
    print_matrix("C (golden)",   golden,   DOT_M, DOT_N);
1c008880:	0c098993          	addi	s3,s3,192
1c008884:	1c001537          	lui	a0,0x1c001
1c008888:	85ce                	mv	a1,s3
1c00888a:	b2850513          	addi	a0,a0,-1240 # 1c000b28 <__DTOR_END__+0x2c0>
1c00888e:	3da5                	jal	1c008706 <print_matrix.constprop.1>
1c008890:	894e                	mv	s2,s3

    /* ------------------------------------------------------------------
     * Verify each element against the golden reference.
     * ------------------------------------------------------------------ */
    int errors = 0;
    for (int i = 0; i < DOT_M * DOT_N; i++) {
1c008892:	4401                	li	s0,0
    int errors = 0;
1c008894:	4a01                	li	s4,0
        if (matrix_c[i] != golden[i]) {
            printf("[lemon_dot] MISMATCH at [%d][%d]: got %d, expected %d\n",
1c008896:	1c001ab7          	lui	s5,0x1c001
        if (matrix_c[i] != golden[i]) {
1c00889a:	0044a80b          	p.lw	a6,4(s1!)
1c00889e:	0049278b          	p.lw	a5,4(s2!)
            printf("[lemon_dot] MISMATCH at [%d][%d]: got %d, expected %d\n",
1c0088a2:	fa243633          	p.bclr	a2,s0,29,2
1c0088a6:	40245593          	srai	a1,s0,0x2
1c0088aa:	873e                	mv	a4,a5
1c0088ac:	86c2                	mv	a3,a6
1c0088ae:	b34a8513          	addi	a0,s5,-1228 # 1c000b34 <__DTOR_END__+0x2cc>
        if (matrix_c[i] != golden[i]) {
1c0088b2:	00f80463          	beq	a6,a5,1c0088ba <cluster_entry+0x14e>
            printf("[lemon_dot] MISMATCH at [%d][%d]: got %d, expected %d\n",
1c0088b6:	24fd                	jal	1c008ba4 <printf>
                   i / DOT_N, i % DOT_N, matrix_c[i], golden[i]);
            errors++;
1c0088b8:	0a05                	addi	s4,s4,1
    for (int i = 0; i < DOT_M * DOT_N; i++) {
1c0088ba:	0405                	addi	s0,s0,1
1c0088bc:	fc999fe3          	bne	s3,s1,1c00889a <cluster_entry+0x12e>
        }
    }

    printf("\n");
1c0088c0:	4529                	li	a0,10
1c0088c2:	2459                	jal	1c008b48 <putchar>
    if (errors == 0) {
1c0088c4:	020a0963          	beqz	s4,1c0088f6 <cluster_entry+0x18a>
        printf("<<<<<<<<<<>>>>>>>>>>\n");
        printf("[lemon_dot] PASS — all %d elements match!\n", DOT_M * DOT_N);
        printf("<<<<<<<<<<>>>>>>>>>>\n");
    } else {
        printf("/!\\ ---------- /!\\\n");
1c0088c8:	1c001437          	lui	s0,0x1c001
1c0088cc:	bb440513          	addi	a0,s0,-1100 # 1c000bb4 <__DTOR_END__+0x34c>
1c0088d0:	2411                	jal	1c008ad4 <puts>
        printf("[lemon_dot] FAIL — %d / %d mismatches\n", errors, DOT_M * DOT_N);
1c0088d2:	1c001537          	lui	a0,0x1c001
1c0088d6:	4641                	li	a2,16
1c0088d8:	85d2                	mv	a1,s4
1c0088da:	bc850513          	addi	a0,a0,-1080 # 1c000bc8 <__DTOR_END__+0x360>
1c0088de:	24d9                	jal	1c008ba4 <printf>
        printf("/!\\ ---------- /!\\\n");
1c0088e0:	bb440513          	addi	a0,s0,-1100
    }
}
1c0088e4:	4462                	lw	s0,24(sp)
1c0088e6:	40f2                	lw	ra,28(sp)
1c0088e8:	44d2                	lw	s1,20(sp)
1c0088ea:	4942                	lw	s2,16(sp)
1c0088ec:	49b2                	lw	s3,12(sp)
1c0088ee:	4a22                	lw	s4,8(sp)
1c0088f0:	4a92                	lw	s5,4(sp)
1c0088f2:	6105                	addi	sp,sp,32
        printf("/!\\ ---------- /!\\\n");
1c0088f4:	a2c5                	j	1c008ad4 <puts>
        printf("<<<<<<<<<<>>>>>>>>>>\n");
1c0088f6:	1c001437          	lui	s0,0x1c001
1c0088fa:	b6c40513          	addi	a0,s0,-1172 # 1c000b6c <__DTOR_END__+0x304>
1c0088fe:	2ad9                	jal	1c008ad4 <puts>
        printf("[lemon_dot] PASS — all %d elements match!\n", DOT_M * DOT_N);
1c008900:	1c001537          	lui	a0,0x1c001
1c008904:	45c1                	li	a1,16
1c008906:	b8450513          	addi	a0,a0,-1148 # 1c000b84 <__DTOR_END__+0x31c>
1c00890a:	2c69                	jal	1c008ba4 <printf>
        printf("<<<<<<<<<<>>>>>>>>>>\n");
1c00890c:	b6c40513          	addi	a0,s0,-1172
1c008910:	bfd1                	j	1c0088e4 <cluster_entry+0x178>

1c008912 <main>:
    int ret = test_entry();
    pmsis_exit(ret);
}

int main(void)
{
1c008912:	711d                	addi	sp,sp,-96
    pi_cluster_conf_init(&cl_conf);
1c008914:	0808                	addi	a0,sp,16
{
1c008916:	ce86                	sw	ra,92(sp)
1c008918:	cca2                	sw	s0,88(sp)
    pi_cluster_conf_init(&cl_conf);
1c00891a:	6f4010ef          	jal	ra,1c00a00e <pi_cluster_conf_init>
    pi_open_from_conf(&cluster_dev, &cl_conf);
1c00891e:	0048                	addi	a0,sp,4
1c008920:	080c                	addi	a1,sp,16
1c008922:	2b2010ef          	jal	ra,1c009bd4 <pi_open_from_conf>
    if (pi_cluster_open(&cluster_dev)) {
1c008926:	0048                	addi	a0,sp,4
1c008928:	6f0010ef          	jal	ra,1c00a018 <pi_cluster_open>
1c00892c:	e90d                	bnez	a0,1c00895e <main+0x4c>
    pos_cluster_push_fc_event(task->completion_callback);
}

static inline struct pi_cluster_task *pi_cluster_task(struct pi_cluster_task *task, void (*entry)(void*), void *arg)
{
    task->entry = entry;
1c00892e:	1c0087b7          	lui	a5,0x1c008
1c008932:	76c78793          	addi	a5,a5,1900 # 1c00876c <cluster_entry>
1c008936:	d43e                	sw	a5,40(sp)
1c008938:	842a                	mv	s0,a0
    task->arg = arg;
    task->stacks = (void *)0;
    task->stack_size = 0;
    task->nb_cores = pi_cl_cluster_nb_cores();
1c00893a:	47a1                	li	a5,8
    pi_cluster_send_task_to_cl(
1c00893c:	102c                	addi	a1,sp,40
1c00893e:	0048                	addi	a0,sp,4
    task->arg = arg;
1c008940:	d602                	sw	zero,44(sp)
    task->stacks = (void *)0;
1c008942:	d802                	sw	zero,48(sp)
    task->stack_size = 0;
1c008944:	da02                	sw	zero,52(sp)
    task->nb_cores = pi_cl_cluster_nb_cores();
1c008946:	de3e                	sw	a5,60(sp)
1c008948:	13d010ef          	jal	ra,1c00a284 <pi_cluster_send_task_to_cl>
    pi_cluster_close(&cluster_dev);
1c00894c:	0048                	addi	a0,sp,4
1c00894e:	033010ef          	jal	ra,1c00a180 <pi_cluster_close>
    return pos_kernel_pmsis_exit_value;
}

static inline void pmsis_exit(int err)
{
    pos_kernel_pmsis_exit_value = err;
1c008952:	1c0017b7          	lui	a5,0x1c001
    exit(err);
1c008956:	8522                	mv	a0,s0
    pos_kernel_pmsis_exit_value = err;
1c008958:	4e87a823          	sw	s0,1264(a5) # 1c0014f0 <_edata>
    exit(err);
1c00895c:	2c11                	jal	1c008b70 <exit>
        printf("[lemon_dot] ERROR: could not open cluster\n");
1c00895e:	1c001537          	lui	a0,0x1c001
1c008962:	bf450513          	addi	a0,a0,-1036 # 1c000bf4 <__DTOR_END__+0x38c>
1c008966:	22bd                	jal	1c008ad4 <puts>
        return -1;
1c008968:	547d                	li	s0,-1
1c00896a:	b7e5                	j	1c008952 <main+0x40>

1c00896c <pos_fll_set_freq>:
    // Just remember the FLL is off. Keep the same frequency so that we can restore the FLL
    // with the same frequency later on
    pos_fll_is_on[fll] = 0;

    // TODO this should shutdown FLL
}
1c00896c:	100596b3          	p.fl1	a3,a1
1c008970:	47f5                	li	a5,29
1c008972:	4705                	li	a4,1
1c008974:	82d7b7db          	p.subun	a5,a5,a3,1
1c008978:	04f767b3          	p.max	a5,a4,a5
1c00897c:	00400693          	li	a3,4
1c008980:	fff78613          	addi	a2,a5,-1
1c008984:	00f595b3          	sll	a1,a1,a5
1c008988:	00c71733          	sll	a4,a4,a2
1c00898c:	dc05b833          	p.bclr	a6,a1,14,0
1c008990:	00a68633          	add	a2,a3,a0
1c008994:	c0f8275b          	p.addunr	a4,a6,a5
1c008998:	00c64603          	lbu	a2,12(a2) # 100000c <__l1_heap_size+0xff0130>
1c00899c:	00251813          	slli	a6,a0,0x2
1c0089a0:	00e6e823          	p.sw	a4,a6(a3)
1c0089a4:	ce19                	beqz	a2,1c0089c2 <pos_fll_set_freq+0x56>
1c0089a6:	0512                	slli	a0,a0,0x4
1c0089a8:	0511                	addi	a0,a0,4
1c0089aa:	1a100637          	lui	a2,0x1a100
1c0089ae:	20a67683          	p.lw	a3,a0(a2)
1c0089b2:	81bd                	srli	a1,a1,0xf
1c0089b4:	de05a6b3          	p.insert	a3,a1,15,0
1c0089b8:	0785                	addi	a5,a5,1
1c0089ba:	c7a7a6b3          	p.insert	a3,a5,3,26
1c0089be:	00d66523          	p.sw	a3,a0(a2)
1c0089c2:	853a                	mv	a0,a4
1c0089c4:	8082                	ret

1c0089c6 <pos_fll_init>:
1c0089c6:	1141                	addi	sp,sp,-16
1c0089c8:	00451693          	slli	a3,a0,0x4
1c0089cc:	c04a                	sw	s2,0(sp)
1c0089ce:	00468613          	addi	a2,a3,4
1c0089d2:	892a                	mv	s2,a0
1c0089d4:	1a100737          	lui	a4,0x1a100
1c0089d8:	c606                	sw	ra,12(sp)
1c0089da:	c422                	sw	s0,8(sp)
1c0089dc:	c226                	sw	s1,4(sp)
1c0089de:	20c77503          	p.lw	a0,a2(a4)
1c0089e2:	87aa                	mv	a5,a0
1c0089e4:	04054163          	bltz	a0,1c008a26 <pos_fll_init+0x60>
1c0089e8:	00868893          	addi	a7,a3,8
1c0089ec:	21177803          	p.lw	a6,a7(a4)
1c0089f0:	4599                	li	a1,6
1c0089f2:	caa5a833          	p.insert	a6,a1,5,10
1c0089f6:	05000593          	li	a1,80
1c0089fa:	d705a833          	p.insert	a6,a1,11,16
1c0089fe:	1a1005b7          	lui	a1,0x1a100
1c008a02:	0105e8a3          	p.sw	a6,a7(a1)
1c008a06:	06b1                	addi	a3,a3,12
1c008a08:	20d77703          	p.lw	a4,a3(a4)
1c008a0c:	14c00813          	li	a6,332
1c008a10:	d3082733          	p.insert	a4,a6,9,16
1c008a14:	00e5e6a3          	p.sw	a4,a3(a1)
1c008a18:	4705                	li	a4,1
1c008a1a:	c1e727b3          	p.insert	a5,a4,0,30
1c008a1e:	c1f727b3          	p.insert	a5,a4,0,31
1c008a22:	00f5e623          	p.sw	a5,a2(a1)
1c008a26:	00400413          	li	s0,4
1c008a2a:	00291713          	slli	a4,s2,0x2
1c008a2e:	9722                	add	a4,a4,s0
1c008a30:	4304                	lw	s1,0(a4)
1c008a32:	e48d                	bnez	s1,1c008a5c <pos_fll_init+0x96>
1c008a34:	10055533          	p.exthz	a0,a0
1c008a38:	c7a797b3          	p.extractu	a5,a5,3,26
1c008a3c:	053e                	slli	a0,a0,0xf
1c008a3e:	17fd                	addi	a5,a5,-1
1c008a40:	00f554b3          	srl	s1,a0,a5
1c008a44:	c304                	sw	s1,0(a4)
1c008a46:	944a                	add	s0,s0,s2
1c008a48:	4785                	li	a5,1
1c008a4a:	00f40623          	sb	a5,12(s0)
1c008a4e:	40b2                	lw	ra,12(sp)
1c008a50:	4422                	lw	s0,8(sp)
1c008a52:	8526                	mv	a0,s1
1c008a54:	4902                	lw	s2,0(sp)
1c008a56:	4492                	lw	s1,4(sp)
1c008a58:	0141                	addi	sp,sp,16
1c008a5a:	8082                	ret
1c008a5c:	85a6                	mv	a1,s1
1c008a5e:	854a                	mv	a0,s2
1c008a60:	3731                	jal	1c00896c <pos_fll_set_freq>
1c008a62:	b7d5                	j	1c008a46 <pos_fll_init+0x80>

1c008a64 <pos_fll_constructor>:

void pos_fll_constructor()
{
    for (int i=0; i<ARCHI_NB_FLL; i++)
    {
        pos_fll_freq[i] = 0;
1c008a64:	00400793          	li	a5,4
1c008a68:	0007a023          	sw	zero,0(a5)
1c008a6c:	0007a223          	sw	zero,4(a5)
1c008a70:	0007a423          	sw	zero,8(a5)
        pos_fll_is_on[i] = 0;
1c008a74:	00079623          	sh	zero,12(a5)
1c008a78:	00078723          	sb	zero,14(a5)
    }
}
1c008a7c:	8082                	ret

1c008a7e <pos_soc_init>:
 */

#include "pmsis.h"

void pos_soc_init()
{
1c008a7e:	1141                	addi	sp,sp,-16
1c008a80:	c606                	sw	ra,12(sp)
1c008a82:	c422                	sw	s0,8(sp)
    pos_fll_constructor();
1c008a84:	37c5                	jal	1c008a64 <pos_fll_constructor>

    pos_freq_domains[PI_FREQ_DOMAIN_FC] = pos_fll_init(POS_FLL_FC);
1c008a86:	4501                	li	a0,0
1c008a88:	3f3d                	jal	1c0089c6 <pos_fll_init>
1c008a8a:	00a02a23          	sw	a0,20(zero) # 14 <pos_freq_domains>

    pos_freq_domains[PI_FREQ_DOMAIN_PERIPH] = pos_fll_init(POS_FLL_PERIPH);
1c008a8e:	4505                	li	a0,1
1c008a90:	3f1d                	jal	1c0089c6 <pos_fll_init>
1c008a92:	01400413          	li	s0,20
1c008a96:	c408                	sw	a0,8(s0)

    pos_freq_domains[PI_FREQ_DOMAIN_CL] = pos_fll_init(POS_FLL_CL);
1c008a98:	4509                	li	a0,2
1c008a9a:	3735                	jal	1c0089c6 <pos_fll_init>
1c008a9c:	c048                	sw	a0,4(s0)
}
1c008a9e:	40b2                	lw	ra,12(sp)
1c008aa0:	4422                	lw	s0,8(sp)
1c008aa2:	0141                	addi	sp,sp,16
1c008aa4:	8082                	ret

1c008aa6 <strchr>:
void __assert_func(const char *file,
                   int line,
                   const char *func,
                   const char *failedexpr) {
  printf("ASSERTION Failure: expr=%s at %s:%d\n", failedexpr, file, line);
  abort();
1c008aa6:	00054783          	lbu	a5,0(a0)
1c008aaa:	0ff5f593          	andi	a1,a1,255
1c008aae:	00b78c63          	beq	a5,a1,1c008ac6 <strchr+0x20>
1c008ab2:	cb99                	beqz	a5,1c008ac8 <strchr+0x22>
1c008ab4:	00150793          	addi	a5,a0,1
1c008ab8:	a011                	j	1c008abc <strchr+0x16>
1c008aba:	c719                	beqz	a4,1c008ac8 <strchr+0x22>
1c008abc:	853e                	mv	a0,a5
1c008abe:	0017c70b          	p.lbu	a4,1(a5!)
1c008ac2:	feb71ce3          	bne	a4,a1,1c008aba <strchr+0x14>
1c008ac6:	8082                	ret
1c008ac8:	0015b593          	seqz	a1,a1
1c008acc:	40b005b3          	neg	a1,a1
1c008ad0:	8d6d                	and	a0,a0,a1
1c008ad2:	8082                	ret

1c008ad4 <puts>:
1c008ad4:	00054783          	lbu	a5,0(a0)
1c008ad8:	f14026f3          	csrr	a3,mhartid
1c008adc:	c395                	beqz	a5,1c008b00 <puts+0x2c>
1c008ade:	ca569733          	p.extractu	a4,a3,5,5
1c008ae2:	f1402673          	csrr	a2,mhartid
1c008ae6:	071e                	slli	a4,a4,0x7
1c008ae8:	060e                	slli	a2,a2,0x3
1c008aea:	1a10f5b7          	lui	a1,0x1a10f
1c008aee:	972e                	add	a4,a4,a1
1c008af0:	ee863633          	p.bclr	a2,a2,23,8
1c008af4:	0505                	addi	a0,a0,1
1c008af6:	9732                	add	a4,a4,a2
1c008af8:	c31c                	sw	a5,0(a4)
1c008afa:	0015478b          	p.lbu	a5,1(a0!)
1c008afe:	ffed                	bnez	a5,1c008af8 <puts+0x24>
1c008b00:	ca5696b3          	p.extractu	a3,a3,5,5
1c008b04:	1a10f737          	lui	a4,0x1a10f
1c008b08:	f14027f3          	csrr	a5,mhartid
1c008b0c:	069e                	slli	a3,a3,0x7
1c008b0e:	078e                	slli	a5,a5,0x3
1c008b10:	96ba                	add	a3,a3,a4
1c008b12:	ee87b7b3          	p.bclr	a5,a5,23,8
1c008b16:	4729                	li	a4,10
1c008b18:	00e6e7a3          	p.sw	a4,a5(a3)
1c008b1c:	4501                	li	a0,0
1c008b1e:	8082                	ret

1c008b20 <fputc>:
1c008b20:	f14027f3          	csrr	a5,mhartid
1c008b24:	1a10f6b7          	lui	a3,0x1a10f
1c008b28:	ca5797b3          	p.extractu	a5,a5,5,5
1c008b2c:	f1402773          	csrr	a4,mhartid
1c008b30:	079e                	slli	a5,a5,0x7
1c008b32:	070e                	slli	a4,a4,0x3
1c008b34:	0ff57513          	andi	a0,a0,255
1c008b38:	ee873733          	p.bclr	a4,a4,23,8
1c008b3c:	97b6                	add	a5,a5,a3
1c008b3e:	00a767a3          	p.sw	a0,a5(a4)
1c008b42:	4501                	li	a0,0
1c008b44:	8082                	ret

1c008b46 <pos_libc_fputc_locked>:
1c008b46:	bfe9                	j	1c008b20 <fputc>

1c008b48 <putchar>:
1c008b48:	f14027f3          	csrr	a5,mhartid
1c008b4c:	1a10f6b7          	lui	a3,0x1a10f
1c008b50:	ca5797b3          	p.extractu	a5,a5,5,5
1c008b54:	f1402773          	csrr	a4,mhartid
1c008b58:	079e                	slli	a5,a5,0x7
1c008b5a:	070e                	slli	a4,a4,0x3
1c008b5c:	0ff57513          	andi	a0,a0,255
1c008b60:	ee873733          	p.bclr	a4,a4,23,8
1c008b64:	97b6                	add	a5,a5,a3
1c008b66:	00a767a3          	p.sw	a0,a5(a4)
1c008b6a:	4501                	li	a0,0
1c008b6c:	8082                	ret

1c008b6e <pos_libc_prf_locked>:
1c008b6e:	a215                	j	1c008c92 <pos_libc_prf>

1c008b70 <exit>:
1c008b70:	1141                	addi	sp,sp,-16
1c008b72:	c422                	sw	s0,8(sp)
1c008b74:	c606                	sw	ra,12(sp)
1c008b76:	842a                	mv	s0,a0
1c008b78:	01a010ef          	jal	ra,1c009b92 <pos_init_stop>
1c008b7c:	c1f44533          	p.bset	a0,s0,0,31
1c008b80:	1a1047b7          	lui	a5,0x1a104
1c008b84:	0aa7a023          	sw	a0,160(a5) # 1a1040a0 <__l1_end+0xa103f7c>
1c008b88:	1a10a7b7          	lui	a5,0x1a10a
1c008b8c:	577d                	li	a4,-1
1c008b8e:	80e7a423          	sw	a4,-2040(a5) # 1a109808 <__l1_end+0xa1096e4>
1c008b92:	10500073          	wfi
1c008b96:	10500073          	wfi
1c008b9a:	bfe5                	j	1c008b92 <exit+0x22>

1c008b9c <pos_io_start>:
    pos_io_uart_enabled = 1;

#endif

    return 0;
}
1c008b9c:	4501                	li	a0,0
1c008b9e:	8082                	ret

1c008ba0 <pos_io_stop>:
1c008ba0:	4501                	li	a0,0
1c008ba2:	8082                	ret

1c008ba4 <printf>:

	return r;
}

int printf(const char *format, ...)
{
1c008ba4:	7139                	addi	sp,sp,-64
	va_list vargs;
	int     r;

	va_start(vargs, format);
1c008ba6:	02410313          	addi	t1,sp,36
{
1c008baa:	d432                	sw	a2,40(sp)
	r = pos_libc_prf_locked(pos_libc_fputc_locked, DESC(stdout), format, vargs);
1c008bac:	862a                	mv	a2,a0
1c008bae:	1c009537          	lui	a0,0x1c009
{
1c008bb2:	d22e                	sw	a1,36(sp)
1c008bb4:	d636                	sw	a3,44(sp)
	r = pos_libc_prf_locked(pos_libc_fputc_locked, DESC(stdout), format, vargs);
1c008bb6:	4589                	li	a1,2
1c008bb8:	869a                	mv	a3,t1
1c008bba:	b4650513          	addi	a0,a0,-1210 # 1c008b46 <pos_libc_fputc_locked>
{
1c008bbe:	ce06                	sw	ra,28(sp)
1c008bc0:	d83a                	sw	a4,48(sp)
1c008bc2:	da3e                	sw	a5,52(sp)
1c008bc4:	dc42                	sw	a6,56(sp)
1c008bc6:	de46                	sw	a7,60(sp)
	va_start(vargs, format);
1c008bc8:	c61a                	sw	t1,12(sp)
	r = pos_libc_prf_locked(pos_libc_fputc_locked, DESC(stdout), format, vargs);
1c008bca:	3755                	jal	1c008b6e <pos_libc_prf_locked>
	va_end(vargs);

	return r;
}
1c008bcc:	40f2                	lw	ra,28(sp)
1c008bce:	6121                	addi	sp,sp,64
1c008bd0:	8082                	ret

1c008bd2 <_to_hex>:

	return len;
}

static int _to_hex(char *buf, unsigned VALTYPE value, bool alt_form, char prefix)
{
1c008bd2:	8faa                	mv	t6,a0
	int len;
	char *buf0 = buf;

	if (alt_form) {
1c008bd4:	c2c9                	beqz	a3,1c008c56 <_to_hex+0x84>
		*buf++ = '0';
1c008bd6:	77e1                	lui	a5,0xffff8
		*buf++ = 'x';
1c008bd8:	00250893          	addi	a7,a0,2
		*buf++ = '0';
1c008bdc:	8307c793          	xori	a5,a5,-2000
1c008be0:	00f51023          	sh	a5,0(a0)
1c008be4:	4289                	li	t0,2
1c008be6:	8fc6                	mv	t6,a7
1c008be8:	87c6                	mv	a5,a7
		*buf++ = '0' + d + (d > 9 ? ('a' - '0' - 10) : 0);
1c008bea:	4f25                	li	t5,9
1c008bec:	a011                	j	1c008bf0 <_to_hex+0x1e>
	} while (n);
1c008bee:	87c2                	mv	a5,a6
		n /= base;
1c008bf0:	01c61693          	slli	a3,a2,0x1c
1c008bf4:	0045d813          	srli	a6,a1,0x4
1c008bf8:	0106e833          	or	a6,a3,a6
		unsigned int d = n % base;
1c008bfc:	f645b333          	p.bclr	t1,a1,27,4
		n /= base;
1c008c00:	8211                	srli	a2,a2,0x4
		*buf++ = '0' + d + (d > 9 ? ('a' - '0' - 10) : 0);
1c008c02:	03030e93          	addi	t4,t1,48
	} while (n);
1c008c06:	00c86e33          	or	t3,a6,a2
		*buf++ = '0' + d + (d > 9 ? ('a' - '0' - 10) : 0);
1c008c0a:	4681                	li	a3,0
		n /= base;
1c008c0c:	85c2                	mv	a1,a6
		*buf++ = '0' + d + (d > 9 ? ('a' - '0' - 10) : 0);
1c008c0e:	006f7463          	bleu	t1,t5,1c008c16 <_to_hex+0x44>
1c008c12:	02700693          	li	a3,39
1c008c16:	96f6                	add	a3,a3,t4
1c008c18:	00d78023          	sb	a3,0(a5) # ffff8000 <pulp__FC+0xffff8001>
1c008c1c:	00178813          	addi	a6,a5,1
	} while (n);
1c008c20:	fc0e17e3          	bnez	t3,1c008bee <_to_hex+0x1c>
	*buf = 0;
1c008c24:	00080023          	sb	zero,0(a6)
	len = buf - start;
1c008c28:	41f80833          	sub	a6,a6,t6
	for (buf--; buf > start; buf--, start++) {
1c008c2c:	00f8fe63          	bleu	a5,a7,1c008c48 <_to_hex+0x76>
1c008c30:	8646                	mv	a2,a7
1c008c32:	a019                	j	1c008c38 <_to_hex+0x66>
1c008c34:	0007c683          	lbu	a3,0(a5)
		*buf = *start;
1c008c38:	00064583          	lbu	a1,0(a2) # 1a100000 <__l1_end+0xa0ffedc>
1c008c3c:	feb78fab          	p.sb	a1,-1(a5!)
		*start = tmp;
1c008c40:	00d600ab          	p.sb	a3,1(a2!)
	for (buf--; buf > start; buf--, start++) {
1c008c44:	fef668e3          	bltu	a2,a5,1c008c34 <_to_hex+0x62>
	}

	len = _to_x(buf, value, 16);
	if (prefix == 'X') {
1c008c48:	05800793          	li	a5,88
1c008c4c:	00f70863          	beq	a4,a5,1c008c5c <_to_hex+0x8a>
		_uc(buf0);
	}

	return len + (buf - buf0);
}
1c008c50:	00580533          	add	a0,a6,t0
1c008c54:	8082                	ret
1c008c56:	88aa                	mv	a7,a0
1c008c58:	4281                	li	t0,0
1c008c5a:	b779                	j	1c008be8 <_to_hex+0x16>
		if (*buf >= 'a' && *buf <= 'z') {
1c008c5c:	4665                	li	a2,25
1c008c5e:	0015470b          	p.lbu	a4,1(a0!)
1c008c62:	f9f70793          	addi	a5,a4,-97 # 1a10ef9f <__l1_end+0xa10ee7b>
1c008c66:	0ff7f793          	andi	a5,a5,255
			*buf += 'A' - 'a';
1c008c6a:	fe070693          	addi	a3,a4,-32
		if (*buf >= 'a' && *buf <= 'z') {
1c008c6e:	00f66e63          	bltu	a2,a5,1c008c8a <_to_hex+0xb8>
			*buf += 'A' - 'a';
1c008c72:	fed50fa3          	sb	a3,-1(a0)
		if (*buf >= 'a' && *buf <= 'z') {
1c008c76:	0015470b          	p.lbu	a4,1(a0!)
1c008c7a:	f9f70793          	addi	a5,a4,-97
1c008c7e:	0ff7f793          	andi	a5,a5,255
			*buf += 'A' - 'a';
1c008c82:	fe070693          	addi	a3,a4,-32
		if (*buf >= 'a' && *buf <= 'z') {
1c008c86:	fef676e3          	bleu	a5,a2,1c008c72 <_to_hex+0xa0>
	} while (*buf++);
1c008c8a:	fb71                	bnez	a4,1c008c5e <_to_hex+0x8c>
}
1c008c8c:	00580533          	add	a0,a6,t0
1c008c90:	8082                	ret

1c008c92 <pos_libc_prf>:
	*sptr = p;
	return i;
}

int pos_libc_prf(int (*func)(), void *dest, const char *format, va_list vargs)
{
1c008c92:	7119                	addi	sp,sp,-128
1c008c94:	dca2                	sw	s0,120(sp)
1c008c96:	daa6                	sw	s1,116(sp)
1c008c98:	d6ce                	sw	s3,108(sp)
1c008c9a:	d0da                	sw	s6,96(sp)
1c008c9c:	cae6                	sw	s9,84(sp)
1c008c9e:	c8ea                	sw	s10,80(sp)
1c008ca0:	de86                	sw	ra,124(sp)
1c008ca2:	d8ca                	sw	s2,112(sp)
1c008ca4:	d4d2                	sw	s4,104(sp)
1c008ca6:	d2d6                	sw	s5,100(sp)
1c008ca8:	cede                	sw	s7,92(sp)
1c008caa:	cce2                	sw	s8,88(sp)
1c008cac:	c6ee                	sw	s11,76(sp)
1c008cae:	8caa                	mv	s9,a0
1c008cb0:	84ae                	mv	s1,a1
1c008cb2:	8d32                	mv	s10,a2
1c008cb4:	89b6                	mv	s3,a3
	struct zero_padding zero;
	VALTYPE val;

#define PUTC(c)	do { if ((*func)(c, dest) == EOF) return EOF; } while (false)

	count = 0;
1c008cb6:	4401                	li	s0,0
1c008cb8:	1c001b37          	lui	s6,0x1c001

	while ((c = *format++)) {
1c008cbc:	a039                	j	1c008cca <pos_libc_prf+0x38>
		if (c != '%') {
			PUTC(c);
1c008cbe:	85a6                	mv	a1,s1
1c008cc0:	9c82                	jalr	s9
1c008cc2:	09f52863          	p.beqimm	a0,-1,1c008d52 <pos_libc_prf+0xc0>
			count++;
1c008cc6:	0405                	addi	s0,s0,1
	while ((c = *format++)) {
1c008cc8:	8d62                	mv	s10,s8
1c008cca:	000d4503          	lbu	a0,0(s10)
1c008cce:	001d0c13          	addi	s8,s10,1
1c008cd2:	c149                	beqz	a0,1c008d54 <pos_libc_prf+0xc2>
		if (c != '%') {
1c008cd4:	02500713          	li	a4,37
1c008cd8:	fee513e3          	bne	a0,a4,1c008cbe <pos_libc_prf+0x2c>
		} else {
			fminus = fplus = fspace = falt = fzero = false;
1c008cdc:	ca02                	sw	zero,20(sp)
1c008cde:	c802                	sw	zero,16(sp)
1c008ce0:	c402                	sw	zero,8(sp)
1c008ce2:	c602                	sw	zero,12(sp)
1c008ce4:	c202                	sw	zero,4(sp)
			while (strchr("-+ #0", (c = *format++)) != NULL) {
				switch (c) {
1c008ce6:	02300913          	li	s2,35
1c008cea:	02d00b93          	li	s7,45
			while (strchr("-+ #0", (c = *format++)) != NULL) {
1c008cee:	000c4d83          	lbu	s11,0(s8)
1c008cf2:	001c0a13          	addi	s4,s8,1
1c008cf6:	85ee                	mv	a1,s11
1c008cf8:	c48b0513          	addi	a0,s6,-952 # 1c000c48 <__DTOR_END__+0x3e0>
1c008cfc:	8d52                	mv	s10,s4
1c008cfe:	8aee                	mv	s5,s11
1c008d00:	335d                	jal	1c008aa6 <strchr>
1c008d02:	c15d                	beqz	a0,1c008da8 <pos_libc_prf+0x116>
				switch (c) {
1c008d04:	092d8e63          	beq	s11,s2,1c008da0 <pos_libc_prf+0x10e>
1c008d08:	07b97663          	bleu	s11,s2,1c008d74 <pos_libc_prf+0xe2>
1c008d0c:	097d8663          	beq	s11,s7,1c008d98 <pos_libc_prf+0x106>
1c008d10:	03000693          	li	a3,48
1c008d14:	06dd8e63          	beq	s11,a3,1c008d90 <pos_libc_prf+0xfe>
1c008d18:	02b00713          	li	a4,43
1c008d1c:	06ed8663          	beq	s11,a4,1c008d88 <pos_libc_prf+0xf6>
1c008d20:	8c52                	mv	s8,s4
1c008d22:	b7f1                	j	1c008cee <pos_libc_prf+0x5c>
			 * In the non-float cases, those predot, postdot and
			 * tail params are equal to 0.
			 */
			count += clen;
			if (zero.predot) {
				c = *cptr;
1c008d24:	000c4503          	lbu	a0,0(s8)
				while (isdigit(c)) {
1c008d28:	4725                	li	a4,9
	return ((((unsigned)c) >= ' ') && (((unsigned)c) <= '~'));
}

static inline int isdigit(int a)
{
	return (((unsigned)(a)-'0') < 10);
1c008d2a:	fd050693          	addi	a3,a0,-48
1c008d2e:	48d76de3          	bltu	a4,a3,1c0099c8 <pos_libc_prf+0xd36>
1c008d32:	001c0a13          	addi	s4,s8,1
1c008d36:	a809                	j	1c008d48 <pos_libc_prf+0xb6>
1c008d38:	001a450b          	p.lbu	a0,1(s4!)
1c008d3c:	4625                	li	a2,9
1c008d3e:	fd050793          	addi	a5,a0,-48
					PUTC(c);
					clen--;
1c008d42:	1dfd                	addi	s11,s11,-1
				while (isdigit(c)) {
1c008d44:	48f663e3          	bltu	a2,a5,1c0099ca <pos_libc_prf+0xd38>
					PUTC(c);
1c008d48:	85a6                	mv	a1,s1
					c = *++cptr;
1c008d4a:	8c52                	mv	s8,s4
					PUTC(c);
1c008d4c:	9c82                	jalr	s9
1c008d4e:	fff535e3          	p.bneimm	a0,-1,1c008d38 <pos_libc_prf+0xa6>
			PUTC(c);
1c008d52:	547d                	li	s0,-1
		}
	}
	return count;

#undef PUTC
}
1c008d54:	8522                	mv	a0,s0
1c008d56:	50f6                	lw	ra,124(sp)
1c008d58:	5466                	lw	s0,120(sp)
1c008d5a:	54d6                	lw	s1,116(sp)
1c008d5c:	5946                	lw	s2,112(sp)
1c008d5e:	59b6                	lw	s3,108(sp)
1c008d60:	5a26                	lw	s4,104(sp)
1c008d62:	5a96                	lw	s5,100(sp)
1c008d64:	5b06                	lw	s6,96(sp)
1c008d66:	4bf6                	lw	s7,92(sp)
1c008d68:	4c66                	lw	s8,88(sp)
1c008d6a:	4cd6                	lw	s9,84(sp)
1c008d6c:	4d46                	lw	s10,80(sp)
1c008d6e:	4db6                	lw	s11,76(sp)
1c008d70:	6109                	addi	sp,sp,128
1c008d72:	8082                	ret
				switch (c) {
1c008d74:	fe0d80e3          	beqz	s11,1c008d54 <pos_libc_prf+0xc2>
1c008d78:	02000613          	li	a2,32
1c008d7c:	facd92e3          	bne	s11,a2,1c008d20 <pos_libc_prf+0x8e>
					fspace = true;
1c008d80:	4705                	li	a4,1
1c008d82:	c83a                	sw	a4,16(sp)
1c008d84:	8c52                	mv	s8,s4
1c008d86:	b7a5                	j	1c008cee <pos_libc_prf+0x5c>
					fplus = true;
1c008d88:	4785                	li	a5,1
1c008d8a:	c43e                	sw	a5,8(sp)
1c008d8c:	8c52                	mv	s8,s4
1c008d8e:	b785                	j	1c008cee <pos_libc_prf+0x5c>
					fzero = true;
1c008d90:	4785                	li	a5,1
1c008d92:	ca3e                	sw	a5,20(sp)
1c008d94:	8c52                	mv	s8,s4
1c008d96:	bfa1                	j	1c008cee <pos_libc_prf+0x5c>
					fminus = true;
1c008d98:	4785                	li	a5,1
1c008d9a:	c63e                	sw	a5,12(sp)
1c008d9c:	8c52                	mv	s8,s4
1c008d9e:	bf81                	j	1c008cee <pos_libc_prf+0x5c>
					falt = true;
1c008da0:	4785                	li	a5,1
1c008da2:	c23e                	sw	a5,4(sp)
1c008da4:	8c52                	mv	s8,s4
1c008da6:	b7a1                	j	1c008cee <pos_libc_prf+0x5c>
			if (c == '*') {
1c008da8:	02a00613          	li	a2,42
1c008dac:	28cd8863          	beq	s11,a2,1c00903c <pos_libc_prf+0x3aa>
1c008db0:	fd0d8613          	addi	a2,s11,-48
			} else if (!isdigit(c)) {
1c008db4:	45a5                	li	a1,9
				width = 0;
1c008db6:	4b81                	li	s7,0
			} else if (!isdigit(c)) {
1c008db8:	06c5fe63          	bleu	a2,a1,1c008e34 <pos_libc_prf+0x1a2>
			if (c == '.') {
1c008dbc:	02e00793          	li	a5,46
1c008dc0:	22fa8c63          	beq	s5,a5,1c008ff8 <pos_libc_prf+0x366>
1c008dc4:	8a56                	mv	s4,s5
			precision = -1;
1c008dc6:	597d                	li	s2,-1
			if (strchr("hlz", c) != NULL) {
1c008dc8:	1c001637          	lui	a2,0x1c001
1c008dcc:	85d6                	mv	a1,s5
1c008dce:	c5060513          	addi	a0,a2,-944 # 1c000c50 <__DTOR_END__+0x3e8>
1c008dd2:	39d1                	jal	1c008aa6 <strchr>
			i = 0;
1c008dd4:	4781                	li	a5,0
			if (strchr("hlz", c) != NULL) {
1c008dd6:	cd19                	beqz	a0,1c008df4 <pos_libc_prf+0x162>
				if (i == 'l' && c == 'l') {
1c008dd8:	06c00793          	li	a5,108
				c = *format++;
1c008ddc:	001d0693          	addi	a3,s10,1
1c008de0:	000d4a83          	lbu	s5,0(s10)
				if (i == 'l' && c == 'l') {
1c008de4:	32fa0963          	beq	s4,a5,1c009116 <pos_libc_prf+0x484>
				} else if (i == 'h' && c == 'h') {
1c008de8:	06800793          	li	a5,104
1c008dec:	32fa0963          	beq	s4,a5,1c00911e <pos_libc_prf+0x48c>
				c = *format++;
1c008df0:	8d36                	mv	s10,a3
				} else if (i == 'h' && c == 'h') {
1c008df2:	87d2                	mv	a5,s4
			switch (c) {
1c008df4:	06700693          	li	a3,103
1c008df8:	0556ef63          	bltu	a3,s5,1c008e56 <pos_libc_prf+0x1c4>
1c008dfc:	06500693          	li	a3,101
1c008e00:	42daf563          	bleu	a3,s5,1c00922a <pos_libc_prf+0x598>
1c008e04:	04700693          	li	a3,71
1c008e08:	3356e163          	bltu	a3,s5,1c00912a <pos_libc_prf+0x498>
1c008e0c:	04500793          	li	a5,69
1c008e10:	40fafd63          	bleu	a5,s5,1c00922a <pos_libc_prf+0x598>
1c008e14:	f40a80e3          	beqz	s5,1c008d54 <pos_libc_prf+0xc2>
1c008e18:	02500793          	li	a5,37
1c008e1c:	5afa9263          	bne	s5,a5,1c0093c0 <pos_libc_prf+0x72e>
				PUTC('%');
1c008e20:	85a6                	mv	a1,s1
1c008e22:	02500513          	li	a0,37
1c008e26:	9c82                	jalr	s9
1c008e28:	f3f525e3          	p.beqimm	a0,-1,1c008d52 <pos_libc_prf+0xc0>
				count++;
1c008e2c:	0405                	addi	s0,s0,1
				continue;
1c008e2e:	bd71                	j	1c008cca <pos_libc_prf+0x38>
	while (isdigit(*p)) {
1c008e30:	8c52                	mv	s8,s4
1c008e32:	0a05                	addi	s4,s4,1
		i = 10 * i + *p++ - '0';
1c008e34:	002b9793          	slli	a5,s7,0x2
	while (isdigit(*p)) {
1c008e38:	000a4a83          	lbu	s5,0(s4)
		i = 10 * i + *p++ - '0';
1c008e3c:	97de                	add	a5,a5,s7
1c008e3e:	0786                	slli	a5,a5,0x1
1c008e40:	97ee                	add	a5,a5,s11
1c008e42:	fd0a8713          	addi	a4,s5,-48
1c008e46:	fd078b93          	addi	s7,a5,-48
	while (isdigit(*p)) {
1c008e4a:	8dd6                	mv	s11,s5
1c008e4c:	fee5f2e3          	bleu	a4,a1,1c008e30 <pos_libc_prf+0x19e>
				c = *format++;
1c008e50:	002c0d13          	addi	s10,s8,2
1c008e54:	b7a5                	j	1c008dbc <pos_libc_prf+0x12a>
			switch (c) {
1c008e56:	07000693          	li	a3,112
1c008e5a:	5ada8263          	beq	s5,a3,1c0093fe <pos_libc_prf+0x76c>
1c008e5e:	1f56e963          	bltu	a3,s5,1c009050 <pos_libc_prf+0x3be>
1c008e62:	06e00693          	li	a3,110
1c008e66:	56da8a63          	beq	s5,a3,1c0093da <pos_libc_prf+0x748>
1c008e6a:	2d56ea63          	bltu	a3,s5,1c00913e <pos_libc_prf+0x4ac>
1c008e6e:	06900693          	li	a3,105
1c008e72:	54da9763          	bne	s5,a3,1c0093c0 <pos_libc_prf+0x72e>
				switch (i) {
1c008e76:	06c00713          	li	a4,108
1c008e7a:	00e78a63          	beq	a5,a4,1c008e8e <pos_libc_prf+0x1fc>
1c008e7e:	07a00713          	li	a4,122
1c008e82:	00e78663          	beq	a5,a4,1c008e8e <pos_libc_prf+0x1fc>
1c008e86:	04c00713          	li	a4,76
1c008e8a:	18e783e3          	beq	a5,a4,1c009810 <pos_libc_prf+0xb7e>
					val = va_arg(vargs, int);
1c008e8e:	0009a783          	lw	a5,0(s3)
1c008e92:	0991                	addi	s3,s3,4
1c008e94:	41f7d713          	srai	a4,a5,0x1f
1c008e98:	cc4e                	sw	s3,24(sp)
1c008e9a:	c23a                	sw	a4,4(sp)
	if (value < 0) {
1c008e9c:	4712                	lw	a4,4(sp)
1c008e9e:	040743e3          	bltz	a4,1c0096e4 <pos_libc_prf+0xa52>
	} else if (fplus) {
1c008ea2:	4722                	lw	a4,8(sp)
1c008ea4:	020709e3          	beqz	a4,1c0096d6 <pos_libc_prf+0xa44>
		*buf++ = '+';
1c008ea8:	02b00713          	li	a4,43
		*buf++ = ' ';
1c008eac:	02e10223          	sb	a4,36(sp)
1c008eb0:	02510613          	addi	a2,sp,37
1c008eb4:	4712                	lw	a4,4(sp)
1c008eb6:	ce32                	sw	a2,28(sp)
1c008eb8:	02410d93          	addi	s11,sp,36
	return (buf + _to_udec(buf, value)) - start;
1c008ebc:	8c3e                	mv	s8,a5
1c008ebe:	89ba                	mv	s3,a4
1c008ec0:	4af2                	lw	s5,28(sp)
1c008ec2:	a011                	j	1c008ec6 <pos_libc_prf+0x234>
	} while (n);
1c008ec4:	8ad2                	mv	s5,s4
		unsigned int d = n % base;
1c008ec6:	4629                	li	a2,10
1c008ec8:	4681                	li	a3,0
1c008eca:	8562                	mv	a0,s8
1c008ecc:	85ce                	mv	a1,s3
1c008ece:	d0aff0ef          	jal	ra,1c0083d8 <__umoddi3>
1c008ed2:	8a2a                	mv	s4,a0
		n /= base;
1c008ed4:	85ce                	mv	a1,s3
1c008ed6:	8562                	mv	a0,s8
1c008ed8:	4629                	li	a2,10
1c008eda:	4681                	li	a3,0
1c008edc:	9c0ff0ef          	jal	ra,1c00809c <__udivdi3>
		*buf++ = '0' + d + (d > 9 ? ('a' - '0' - 10) : 0);
1c008ee0:	030a0793          	addi	a5,s4,48
1c008ee4:	0ff7f793          	andi	a5,a5,255
1c008ee8:	00fa8023          	sb	a5,0(s5)
	} while (n);
1c008eec:	00a5e733          	or	a4,a1,a0
		*buf++ = '0' + d + (d > 9 ? ('a' - '0' - 10) : 0);
1c008ef0:	001a8a13          	addi	s4,s5,1
		n /= base;
1c008ef4:	8c2a                	mv	s8,a0
1c008ef6:	89ae                	mv	s3,a1
	} while (n);
1c008ef8:	f771                	bnez	a4,1c008ec4 <pos_libc_prf+0x232>
	for (buf--; buf > start; buf--, start++) {
1c008efa:	4772                	lw	a4,28(sp)
	*buf = 0;
1c008efc:	000a0023          	sb	zero,0(s4)
	for (buf--; buf > start; buf--, start++) {
1c008f00:	01577e63          	bleu	s5,a4,1c008f1c <pos_libc_prf+0x28a>
1c008f04:	89ba                	mv	s3,a4
1c008f06:	a019                	j	1c008f0c <pos_libc_prf+0x27a>
1c008f08:	000ac783          	lbu	a5,0(s5)
		*buf = *start;
1c008f0c:	0009c703          	lbu	a4,0(s3)
1c008f10:	feea8fab          	p.sb	a4,-1(s5!)
		*start = tmp;
1c008f14:	00f980ab          	p.sb	a5,1(s3!)
	for (buf--; buf > start; buf--, start++) {
1c008f18:	ff59e8e3          	bltu	s3,s5,1c008f08 <pos_libc_prf+0x276>
				if (fplus || fspace || val < 0) {
1c008f1c:	47a2                	lw	a5,8(sp)
	return (buf + _to_udec(buf, value)) - start;
1c008f1e:	41ba0a33          	sub	s4,s4,s11
				if (fplus || fspace || val < 0) {
1c008f22:	70079363          	bnez	a5,1c009628 <pos_libc_prf+0x996>
1c008f26:	4742                	lw	a4,16(sp)
1c008f28:	70071063          	bnez	a4,1c009628 <pos_libc_prf+0x996>
1c008f2c:	4792                	lw	a5,4(sp)
1c008f2e:	01f7da93          	srli	s5,a5,0x1f
			if (precision >= 0) {
1c008f32:	24094c63          	bltz	s2,1c00918a <pos_libc_prf+0x4f8>
1c008f36:	41490933          	sub	s2,s2,s4
1c008f3a:	9956                	add	s2,s2,s5
1c008f3c:	04096633          	p.max	a2,s2,zero
1c008f40:	00ca07b3          	add	a5,s4,a2
1c008f44:	c432                	sw	a2,8(sp)
1c008f46:	40fb8bb3          	sub	s7,s7,a5
1c008f4a:	8c6e                	mv	s8,s11
			zero.predot = zero.postdot = zero.trail = 0;
1c008f4c:	4901                	li	s2,0
1c008f4e:	c202                	sw	zero,4(sp)
1c008f50:	4981                	li	s3,0
			if (!fminus && width > 0) {
1c008f52:	47b2                	lw	a5,12(sp)
1c008f54:	e385                	bnez	a5,1c008f74 <pos_libc_prf+0x2e2>
1c008f56:	01705f63          	blez	s7,1c008f74 <pos_libc_prf+0x2e2>
				while (width-- > 0) {
1c008f5a:	fffb8d93          	addi	s11,s7,-1
					PUTC(' ');
1c008f5e:	85a6                	mv	a1,s1
1c008f60:	02000513          	li	a0,32
1c008f64:	9c82                	jalr	s9
				while (width-- > 0) {
1c008f66:	1dfd                	addi	s11,s11,-1
					PUTC(' ');
1c008f68:	dff525e3          	p.beqimm	a0,-1,1c008d52 <pos_libc_prf+0xc0>
				while (width-- > 0) {
1c008f6c:	fffdb9e3          	p.bneimm	s11,-1,1c008f5e <pos_libc_prf+0x2cc>
				count += width;
1c008f70:	945e                	add	s0,s0,s7
				while (width-- > 0) {
1c008f72:	5bfd                	li	s7,-1
1c008f74:	015c0db3          	add	s11,s8,s5
			while (prefix-- > 0) {
1c008f78:	a031                	j	1c008f84 <pos_libc_prf+0x2f2>
				PUTC(*cptr++);
1c008f7a:	001c450b          	p.lbu	a0,1(s8!)
1c008f7e:	9c82                	jalr	s9
1c008f80:	ddf529e3          	p.beqimm	a0,-1,1c008d52 <pos_libc_prf+0xc0>
1c008f84:	85a6                	mv	a1,s1
			while (prefix-- > 0) {
1c008f86:	ffbc1ae3          	bne	s8,s11,1c008f7a <pos_libc_prf+0x2e8>
1c008f8a:	4da2                	lw	s11,8(sp)
1c008f8c:	a021                	j	1c008f94 <pos_libc_prf+0x302>
				PUTC('0');
1c008f8e:	9c82                	jalr	s9
1c008f90:	ddf521e3          	p.beqimm	a0,-1,1c008d52 <pos_libc_prf+0xc0>
			while (zero_head-- > 0) {
1c008f94:	1dfd                	addi	s11,s11,-1
				PUTC('0');
1c008f96:	85a6                	mv	a1,s1
1c008f98:	03000513          	li	a0,48
			while (zero_head-- > 0) {
1c008f9c:	fffdb9e3          	p.bneimm	s11,-1,1c008f8e <pos_libc_prf+0x2fc>
			clen -= prefix;
1c008fa0:	415a0a33          	sub	s4,s4,s5
1c008fa4:	c652                	sw	s4,12(sp)
1c008fa6:	8dd2                	mv	s11,s4
			if (zero.predot) {
1c008fa8:	d6099ee3          	bnez	s3,1c008d24 <pos_libc_prf+0x92>
			if (zero.postdot) {
1c008fac:	4692                	lw	a3,4(sp)
1c008fae:	14069563          	bnez	a3,1c0090f8 <pos_libc_prf+0x466>
			if (zero.trail) {
1c008fb2:	10090a63          	beqz	s2,1c0090c6 <pos_libc_prf+0x434>
				c = *cptr;
1c008fb6:	000c4703          	lbu	a4,0(s8)
				while (isdigit(c) || c == '.') {
1c008fba:	49a5                	li	s3,9
1c008fbc:	02e00a13          	li	s4,46
1c008fc0:	a801                	j	1c008fd0 <pos_libc_prf+0x33e>
					c = *++cptr;
1c008fc2:	0c05                	addi	s8,s8,1
					PUTC(c);
1c008fc4:	9c82                	jalr	s9
1c008fc6:	d9f526e3          	p.beqimm	a0,-1,1c008d52 <pos_libc_prf+0xc0>
					c = *++cptr;
1c008fca:	000c4703          	lbu	a4,0(s8)
					clen--;
1c008fce:	1dfd                	addi	s11,s11,-1
1c008fd0:	fd070793          	addi	a5,a4,-48
					PUTC(c);
1c008fd4:	853a                	mv	a0,a4
1c008fd6:	85a6                	mv	a1,s1
				while (isdigit(c) || c == '.') {
1c008fd8:	fef9f5e3          	bleu	a5,s3,1c008fc2 <pos_libc_prf+0x330>
1c008fdc:	ff4703e3          	beq	a4,s4,1c008fc2 <pos_libc_prf+0x330>
1c008fe0:	89ca                	mv	s3,s2
					PUTC('0');
1c008fe2:	85a6                	mv	a1,s1
1c008fe4:	03000513          	li	a0,48
				while (zero.trail-- > 0) {
1c008fe8:	373055e3          	blez	s3,1c009b52 <pos_libc_prf+0xec0>
					PUTC('0');
1c008fec:	9c82                	jalr	s9
1c008fee:	19fd                	addi	s3,s3,-1
1c008ff0:	fff539e3          	p.bneimm	a0,-1,1c008fe2 <pos_libc_prf+0x350>
			PUTC(c);
1c008ff4:	547d                	li	s0,-1
1c008ff6:	bbb9                	j	1c008d54 <pos_libc_prf+0xc2>
				c = *format++;
1c008ff8:	000d4a83          	lbu	s5,0(s10)
				if (c == '*') {
1c008ffc:	02a00793          	li	a5,42
				c = *format++;
1c009000:	001d0593          	addi	a1,s10,1
				if (c == '*') {
1c009004:	08fa8e63          	beq	s5,a5,1c0090a0 <pos_libc_prf+0x40e>
1c009008:	fd0a8793          	addi	a5,s5,-48
	while (isdigit(*p)) {
1c00900c:	4525                	li	a0,9
1c00900e:	8a56                	mv	s4,s5
1c009010:	86ae                	mv	a3,a1
	int i = 0;
1c009012:	4901                	li	s2,0
	while (isdigit(*p)) {
1c009014:	4625                	li	a2,9
1c009016:	8d2e                	mv	s10,a1
1c009018:	daf568e3          	bltu	a0,a5,1c008dc8 <pos_libc_prf+0x136>
		i = 10 * i + *p++ - '0';
1c00901c:	00291793          	slli	a5,s2,0x2
1c009020:	97ca                	add	a5,a5,s2
1c009022:	0786                	slli	a5,a5,0x1
1c009024:	97d6                	add	a5,a5,s5
	while (isdigit(*p)) {
1c009026:	0016ca8b          	p.lbu	s5,1(a3!) # 1a10f001 <__l1_end+0xa10eedd>
		i = 10 * i + *p++ - '0';
1c00902a:	fd078913          	addi	s2,a5,-48
1c00902e:	fd0a8793          	addi	a5,s5,-48
	while (isdigit(*p)) {
1c009032:	8a56                	mv	s4,s5
1c009034:	fef674e3          	bleu	a5,a2,1c00901c <pos_libc_prf+0x38a>
1c009038:	8d36                	mv	s10,a3
1c00903a:	b379                	j	1c008dc8 <pos_libc_prf+0x136>
				width = va_arg(vargs, int);
1c00903c:	0009ab83          	lw	s7,0(s3)
1c009040:	0991                	addi	s3,s3,4
				if (width < 0) {
1c009042:	060bc763          	bltz	s7,1c0090b0 <pos_libc_prf+0x41e>
				c = *format++;
1c009046:	000a4a83          	lbu	s5,0(s4)
1c00904a:	002c0d13          	addi	s10,s8,2
1c00904e:	b3bd                	j	1c008dbc <pos_libc_prf+0x12a>
			switch (c) {
1c009050:	07500693          	li	a3,117
1c009054:	0eda8563          	beq	s5,a3,1c00913e <pos_libc_prf+0x4ac>
1c009058:	07800693          	li	a3,120
1c00905c:	0eda8163          	beq	s5,a3,1c00913e <pos_libc_prf+0x4ac>
1c009060:	07300793          	li	a5,115
1c009064:	34fa9e63          	bne	s5,a5,1c0093c0 <pos_libc_prf+0x72e>
				cptr = va_arg(vargs, char *);
1c009068:	00498793          	addi	a5,s3,4
1c00906c:	cc3e                	sw	a5,24(sp)
1c00906e:	0009ac03          	lw	s8,0(s3)
				if (precision < 0) {
1c009072:	64094463          	bltz	s2,1c0096ba <pos_libc_prf+0xa28>
				for (clen = 0; clen < precision; clen++) {
1c009076:	02090fe3          	beqz	s2,1c0098b4 <pos_libc_prf+0xc22>
					if (cptr[clen] == '\0') {
1c00907a:	000c4703          	lbu	a4,0(s8)
1c00907e:	02070be3          	beqz	a4,1c0098b4 <pos_libc_prf+0xc22>
1c009082:	001c0713          	addi	a4,s8,1
				for (clen = 0; clen < precision; clen++) {
1c009086:	4a01                	li	s4,0
1c009088:	a021                	j	1c009090 <pos_libc_prf+0x3fe>
					if (cptr[clen] == '\0') {
1c00908a:	0017478b          	p.lbu	a5,1(a4!)
1c00908e:	c781                	beqz	a5,1c009096 <pos_libc_prf+0x404>
				for (clen = 0; clen < precision; clen++) {
1c009090:	0a05                	addi	s4,s4,1
1c009092:	ff2a4ce3          	blt	s4,s2,1c00908a <pos_libc_prf+0x3f8>
1c009096:	414b8bb3          	sub	s7,s7,s4
1c00909a:	c402                	sw	zero,8(sp)
1c00909c:	4a81                	li	s5,0
1c00909e:	b57d                	j	1c008f4c <pos_libc_prf+0x2ba>
1c0090a0:	001d4a83          	lbu	s5,1(s10)
					precision = va_arg(vargs, int);
1c0090a4:	0009a903          	lw	s2,0(s3)
1c0090a8:	8a56                	mv	s4,s5
1c0090aa:	0d09                	addi	s10,s10,2
1c0090ac:	0991                	addi	s3,s3,4
1c0090ae:	bb29                	j	1c008dc8 <pos_libc_prf+0x136>
					fminus = true;
1c0090b0:	4785                	li	a5,1
					width = -width;
1c0090b2:	41700bb3          	neg	s7,s7
					fminus = true;
1c0090b6:	c63e                	sw	a5,12(sp)
1c0090b8:	b779                	j	1c009046 <pos_libc_prf+0x3b4>
				PUTC(*cptr++);
1c0090ba:	001c450b          	p.lbu	a0,1(s8!)
1c0090be:	1dfd                	addi	s11,s11,-1
1c0090c0:	9c82                	jalr	s9
1c0090c2:	c9f528e3          	p.beqimm	a0,-1,1c008d52 <pos_libc_prf+0xc0>
1c0090c6:	85a6                	mv	a1,s1
			while (clen-- > 0) {
1c0090c8:	ffb049e3          	bgtz	s11,1c0090ba <pos_libc_prf+0x428>
			count += zero_head;
1c0090cc:	47a2                	lw	a5,8(sp)
			count += prefix;
1c0090ce:	9456                	add	s0,s0,s5
			count += clen;
1c0090d0:	4632                	lw	a2,12(sp)
			count += zero_head;
1c0090d2:	943e                	add	s0,s0,a5
			count += clen;
1c0090d4:	9432                	add	s0,s0,a2
1c0090d6:	49e2                	lw	s3,24(sp)
			if (width > 0) {
1c0090d8:	bf7059e3          	blez	s7,1c008cca <pos_libc_prf+0x38>
				count += width;
1c0090dc:	945e                	add	s0,s0,s7
				while (width-- > 0) {
1c0090de:	1bfd                	addi	s7,s7,-1
1c0090e0:	a019                	j	1c0090e6 <pos_libc_prf+0x454>
1c0090e2:	1dfba2e3          	p.beqimm	s7,-1,1c009aa6 <pos_libc_prf+0xe14>
					PUTC(' ');
1c0090e6:	85a6                	mv	a1,s1
1c0090e8:	02000513          	li	a0,32
1c0090ec:	9c82                	jalr	s9
				while (width-- > 0) {
1c0090ee:	1bfd                	addi	s7,s7,-1
					PUTC(' ');
1c0090f0:	fff539e3          	p.bneimm	a0,-1,1c0090e2 <pos_libc_prf+0x450>
			PUTC(c);
1c0090f4:	547d                	li	s0,-1
1c0090f6:	b9b9                	j	1c008d54 <pos_libc_prf+0xc2>
				} while (c != '.');
1c0090f8:	02e00993          	li	s3,46
1c0090fc:	a021                	j	1c009104 <pos_libc_prf+0x472>
					clen--;
1c0090fe:	1dfd                	addi	s11,s11,-1
				} while (c != '.');
1c009100:	133a04e3          	beq	s4,s3,1c009a28 <pos_libc_prf+0xd96>
					c = *cptr++;
1c009104:	001c4a0b          	p.lbu	s4,1(s8!)
					PUTC(c);
1c009108:	85a6                	mv	a1,s1
1c00910a:	8552                	mv	a0,s4
1c00910c:	9c82                	jalr	s9
1c00910e:	fff538e3          	p.bneimm	a0,-1,1c0090fe <pos_libc_prf+0x46c>
			PUTC(c);
1c009112:	547d                	li	s0,-1
1c009114:	b181                	j	1c008d54 <pos_libc_prf+0xc2>
				if (i == 'l' && c == 'l') {
1c009116:	314a8463          	beq	s5,s4,1c00941e <pos_libc_prf+0x78c>
				c = *format++;
1c00911a:	8d36                	mv	s10,a3
1c00911c:	b9e1                	j	1c008df4 <pos_libc_prf+0x162>
				} else if (i == 'h' && c == 'h') {
1c00911e:	314a8663          	beq	s5,s4,1c00942a <pos_libc_prf+0x798>
				c = *format++;
1c009122:	8d36                	mv	s10,a3
				i = c;
1c009124:	06800793          	li	a5,104
1c009128:	b1f1                	j	1c008df4 <pos_libc_prf+0x162>
			switch (c) {
1c00912a:	06300693          	li	a3,99
1c00912e:	26da8c63          	beq	s5,a3,1c0093a6 <pos_libc_prf+0x714>
1c009132:	d556e2e3          	bltu	a3,s5,1c008e76 <pos_libc_prf+0x1e4>
1c009136:	05800693          	li	a3,88
1c00913a:	28da9363          	bne	s5,a3,1c0093c0 <pos_libc_prf+0x72e>
				switch (i) {
1c00913e:	06c00693          	li	a3,108
1c009142:	4cd78c63          	beq	a5,a3,1c00961a <pos_libc_prf+0x988>
1c009146:	07a00693          	li	a3,122
1c00914a:	4cd78863          	beq	a5,a3,1c00961a <pos_libc_prf+0x988>
1c00914e:	04c00693          	li	a3,76
1c009152:	60d78c63          	beq	a5,a3,1c00976a <pos_libc_prf+0xad8>
1c009156:	0009ac03          	lw	s8,0(s3)
					val = va_arg(vargs, unsigned int);
1c00915a:	0991                	addi	s3,s3,4
1c00915c:	cc4e                	sw	s3,24(sp)
1c00915e:	4a01                	li	s4,0
				if (c == 'o') {
1c009160:	06f00793          	li	a5,111
1c009164:	6cfa8b63          	beq	s5,a5,1c00983a <pos_libc_prf+0xba8>
				} else if (c == 'u') {
1c009168:	07500793          	li	a5,117
1c00916c:	02410d93          	addi	s11,sp,36
1c009170:	62fa8e63          	beq	s5,a5,1c0097ac <pos_libc_prf+0xb1a>
					clen = _to_hex(buf, val, falt, c);
1c009174:	4692                	lw	a3,4(sp)
1c009176:	8756                	mv	a4,s5
1c009178:	8652                	mv	a2,s4
1c00917a:	85e2                	mv	a1,s8
1c00917c:	856e                	mv	a0,s11
1c00917e:	3c91                	jal	1c008bd2 <_to_hex>
			prefix = 0;
1c009180:	4792                	lw	a5,4(sp)
					clen = _to_hex(buf, val, falt, c);
1c009182:	8a2a                	mv	s4,a0
			prefix = 0;
1c009184:	00179a93          	slli	s5,a5,0x1
1c009188:	b36d                	j	1c008f32 <pos_libc_prf+0x2a0>
			zero.predot = zero.postdot = zero.trail = 0;
1c00918a:	4901                	li	s2,0
1c00918c:	c202                	sw	zero,4(sp)
1c00918e:	4981                	li	s3,0
			} else if (fzero) {
1c009190:	47d2                	lw	a5,20(sp)
1c009192:	c7d9                	beqz	a5,1c009220 <pos_libc_prf+0x58e>
				zero_head = width - clen;
1c009194:	414b8633          	sub	a2,s7,s4
1c009198:	04066633          	p.max	a2,a2,zero
1c00919c:	00ca07b3          	add	a5,s4,a2
1c0091a0:	c432                	sw	a2,8(sp)
1c0091a2:	40fb8bb3          	sub	s7,s7,a5
1c0091a6:	8c6e                	mv	s8,s11
1c0091a8:	b36d                	j	1c008f52 <pos_libc_prf+0x2c0>
			*buf++ = '.';
1c0091aa:	02e00693          	li	a3,46
1c0091ae:	00df00a3          	sb	a3,1(t5)
1c0091b2:	002f0893          	addi	a7,t5,2
		while (precision > 0 && digit_count > 0) {
1c0091b6:	41204b63          	bgtz	s2,1c0095cc <pos_libc_prf+0x93a>
	if (prune_zero) {
1c0091ba:	5e028563          	beqz	t0,1c0097a4 <pos_libc_prf+0xb12>
1c0091be:	4681                	li	a3,0
			zero.predot = zero.postdot = zero.trail = 0;
1c0091c0:	c202                	sw	zero,4(sp)
1c0091c2:	4981                	li	s3,0
		while (*--buf == '0')
1c0091c4:	03000593          	li	a1,48
1c0091c8:	a011                	j	1c0091cc <pos_libc_prf+0x53a>
1c0091ca:	88be                	mv	a7,a5
1c0091cc:	fff88793          	addi	a5,a7,-1
1c0091d0:	0007c603          	lbu	a2,0(a5)
1c0091d4:	feb60be3          	beq	a2,a1,1c0091ca <pos_libc_prf+0x538>
		if (*buf != '.') {
1c0091d8:	02e00593          	li	a1,46
		zp->trail = 0;
1c0091dc:	4901                	li	s2,0
		if (*buf != '.') {
1c0091de:	00b61363          	bne	a2,a1,1c0091e4 <pos_libc_prf+0x552>
		while (*--buf == '0')
1c0091e2:	88be                	mv	a7,a5
	if ((c == 'e') || (c == 'E')) {
1c0091e4:	0dfaf793          	andi	a5,s5,223
1c0091e8:	04500613          	li	a2,69
1c0091ec:	44c78063          	beq	a5,a2,1c00962c <pos_libc_prf+0x99a>
	*buf = 0;
1c0091f0:	00088023          	sb	zero,0(a7)
	return buf - start;
1c0091f4:	41b888b3          	sub	a7,a7,s11
				if (fplus || fspace || (buf[0] == '-')) {
1c0091f8:	4722                	lw	a4,8(sp)
1c0091fa:	40071c63          	bnez	a4,1c009612 <pos_libc_prf+0x980>
1c0091fe:	47c2                	lw	a5,16(sp)
1c009200:	40079963          	bnez	a5,1c009612 <pos_libc_prf+0x980>
1c009204:	02414783          	lbu	a5,36(sp)
1c009208:	02d00713          	li	a4,45
			prefix = 0;
1c00920c:	4a81                	li	s5,0
				if (fplus || fspace || (buf[0] == '-')) {
1c00920e:	40e78263          	beq	a5,a4,1c009612 <pos_libc_prf+0x980>
1c009212:	fd078793          	addi	a5,a5,-48
				if (!isdigit(buf[prefix])) {
1c009216:	4725                	li	a4,9
				clen += zero.predot + zero.postdot + zero.trail;
1c009218:	00d88a33          	add	s4,a7,a3
				if (!isdigit(buf[prefix])) {
1c00921c:	f6f77ae3          	bleu	a5,a4,1c009190 <pos_libc_prf+0x4fe>
1c009220:	414b8bb3          	sub	s7,s7,s4
			cptr = buf;
1c009224:	8c6e                	mv	s8,s11
				zero_head = 0;
1c009226:	c402                	sw	zero,8(sp)
1c009228:	b32d                	j	1c008f52 <pos_libc_prf+0x2c0>
				u.d = va_arg(vargs, double);
1c00922a:	00798513          	addi	a0,s3,7
1c00922e:	c4053533          	p.bclr	a0,a0,2,0
				double_val = u.i;
1c009232:	411c                	lw	a5,0(a0)
1c009234:	00452803          	lw	a6,4(a0)
	fract = (double_temp << 11) & ~HIGHBIT64;
1c009238:	0157d693          	srli	a3,a5,0x15
1c00923c:	00b81593          	slli	a1,a6,0xb
1c009240:	8dd5                	or	a1,a1,a3
				u.d = va_arg(vargs, double);
1c009242:	0521                	addi	a0,a0,8
	fract = (double_temp << 11) & ~HIGHBIT64;
1c009244:	800006b7          	lui	a3,0x80000
	exp = double_temp >> 52 & 0x7ff;
1c009248:	01485893          	srli	a7,a6,0x14
	fract = (double_temp << 11) & ~HIGHBIT64;
1c00924c:	fff6c693          	not	a3,a3
				u.d = va_arg(vargs, double);
1c009250:	cc2a                	sw	a0,24(sp)
	exp = double_temp >> 52 & 0x7ff;
1c009252:	e8b8b8b3          	p.bclr	a7,a7,20,11
	fract = (double_temp << 11) & ~HIGHBIT64;
1c009256:	00b79613          	slli	a2,a5,0xb
1c00925a:	8df5                	and	a1,a1,a3
	if (sign) {
1c00925c:	4a084663          	bltz	a6,1c009708 <pos_libc_prf+0xa76>
	} else if (fplus) {
1c009260:	4722                	lw	a4,8(sp)
1c009262:	4e070963          	beqz	a4,1c009754 <pos_libc_prf+0xac2>
		*buf++ = '+';
1c009266:	02b00793          	li	a5,43
1c00926a:	02f10223          	sb	a5,36(sp)
1c00926e:	02510f13          	addi	t5,sp,37
1c009272:	02410d93          	addi	s11,sp,36
	if (exp == 0x7ff) {
1c009276:	7ff00793          	li	a5,2047
1c00927a:	4af88063          	beq	a7,a5,1c00971a <pos_libc_prf+0xa88>
	if (c == 'F') {
1c00927e:	04600793          	li	a5,70
1c009282:	0dfaf513          	andi	a0,s5,223
1c009286:	5afa8163          	beq	s5,a5,1c009828 <pos_libc_prf+0xb96>
	if ((exp | fract) != 0) {
1c00928a:	41f8d693          	srai	a3,a7,0x1f
1c00928e:	00c8e7b3          	or	a5,a7,a2
1c009292:	8ecd                	or	a3,a3,a1
1c009294:	8fd5                	or	a5,a5,a3
1c009296:	1a078063          	beqz	a5,1c009436 <pos_libc_prf+0x7a4>
		if (exp == 0) {
1c00929a:	02089363          	bnez	a7,1c0092c0 <pos_libc_prf+0x62e>
			while (((fract <<= 1) & HIGHBIT64) == 0) {
1c00929e:	01f65793          	srli	a5,a2,0x1f
1c0092a2:	00159693          	slli	a3,a1,0x1
1c0092a6:	00d7e5b3          	or	a1,a5,a3
1c0092aa:	0606                	slli	a2,a2,0x1
1c0092ac:	0805c7e3          	bltz	a1,1c009b3a <pos_libc_prf+0xea8>
1c0092b0:	01f65793          	srli	a5,a2,0x1f
1c0092b4:	0586                	slli	a1,a1,0x1
1c0092b6:	8ddd                	or	a1,a1,a5
				exp--;
1c0092b8:	18fd                	addi	a7,a7,-1
			while (((fract <<= 1) & HIGHBIT64) == 0) {
1c0092ba:	0606                	slli	a2,a2,0x1
1c0092bc:	fe05dae3          	bgez	a1,1c0092b0 <pos_libc_prf+0x61e>
		fract |= HIGHBIT64;
1c0092c0:	800006b7          	lui	a3,0x80000
		exp -= (1023 - 1);	/* +1 since .1 vs 1. */
1c0092c4:	c0288893          	addi	a7,a7,-1022
	while (exp <= -3) {
1c0092c8:	57f9                	li	a5,-2
		fract |= HIGHBIT64;
1c0092ca:	8dd5                	or	a1,a1,a3
	while (exp <= -3) {
1c0092cc:	4301                	li	t1,0
1c0092ce:	06f8d863          	ble	a5,a7,1c00933e <pos_libc_prf+0x6ac>
		while ((fract >> 32) >= (MAXFP1 / 5)) {
1c0092d2:	33333837          	lui	a6,0x33333
		exp -= (1023 - 1);	/* +1 since .1 vs 1. */
1c0092d6:	4301                	li	t1,0
		while ((fract >> 32) >= (MAXFP1 / 5)) {
1c0092d8:	33280813          	addi	a6,a6,818 # 33333332 <__l2_shared_end+0x1732308a>
	while (exp <= -3) {
1c0092dc:	5e79                	li	t3,-2
1c0092de:	a011                	j	1c0092e2 <pos_libc_prf+0x650>
			exp++;
1c0092e0:	88be                	mv	a7,a5
	*v = (*v & 1) + (*v >> 1);
1c0092e2:	01f59693          	slli	a3,a1,0x1f
1c0092e6:	00165713          	srli	a4,a2,0x1
1c0092ea:	fc1637b3          	p.bclr	a5,a2,30,1
1c0092ee:	8f55                	or	a4,a4,a3
1c0092f0:	00e78633          	add	a2,a5,a4
1c0092f4:	00f637b3          	sltu	a5,a2,a5
1c0092f8:	8185                	srli	a1,a1,0x1
1c0092fa:	95be                	add	a1,a1,a5
			exp++;
1c0092fc:	00188793          	addi	a5,a7,1
		while ((fract >> 32) >= (MAXFP1 / 5)) {
1c009300:	feb860e3          	bltu	a6,a1,1c0092e0 <pos_libc_prf+0x64e>
		fract *= 5U;
1c009304:	00261693          	slli	a3,a2,0x2
1c009308:	01e65e93          	srli	t4,a2,0x1e
1c00930c:	00259713          	slli	a4,a1,0x2
1c009310:	9636                	add	a2,a2,a3
1c009312:	00eee733          	or	a4,t4,a4
1c009316:	00d636b3          	sltu	a3,a2,a3
1c00931a:	95ba                	add	a1,a1,a4
1c00931c:	95b6                	add	a1,a1,a3
		while ((fract >> 32) <= (MAXFP1 / 2)) {
1c00931e:	800006b7          	lui	a3,0x80000
1c009322:	fff6c693          	not	a3,a3
			fract <<= 1;
1c009326:	01f65713          	srli	a4,a2,0x1f
		exp++;
1c00932a:	0889                	addi	a7,a7,2
		decexp--;
1c00932c:	137d                	addi	t1,t1,-1
		while ((fract >> 32) <= (MAXFP1 / 2)) {
1c00932e:	00d59663          	bne	a1,a3,1c00933a <pos_libc_prf+0x6a8>
			fract <<= 1;
1c009332:	0606                	slli	a2,a2,0x1
1c009334:	fc1745b3          	p.bset	a1,a4,30,1
			exp--;
1c009338:	88be                	mv	a7,a5
	while (exp <= -3) {
1c00933a:	fbc8c4e3          	blt	a7,t3,1c0092e2 <pos_libc_prf+0x650>
		q = (uint64_t)(hi / 5U) << shifts[i];
1c00933e:	4e15                	li	t3,5
	while (exp > 0) {
1c009340:	0f105f63          	blez	a7,1c00943e <pos_libc_prf+0x7ac>
	rem += 2U;
1c009344:	00260693          	addi	a3,a2,2
1c009348:	00c6b633          	sltu	a2,a3,a2
1c00934c:	95b2                	add	a1,a1,a2
		q = (uint64_t)(hi / 5U) << shifts[i];
1c00934e:	03c5d833          	divu	a6,a1,t3
		rem -= q * 5U;
1c009352:	00281713          	slli	a4,a6,0x2
1c009356:	9742                	add	a4,a4,a6
1c009358:	8d99                	sub	a1,a1,a4
		hi = rem >> shifts[i];
1c00935a:	01d59713          	slli	a4,a1,0x1d
1c00935e:	0036d793          	srli	a5,a3,0x3
1c009362:	8fd9                	or	a5,a5,a4
		q = (uint64_t)(hi / 5U) << shifts[i];
1c009364:	03c7d7b3          	divu	a5,a5,t3
1c009368:	00379613          	slli	a2,a5,0x3
		rem -= q * 5U;
1c00936c:	00579713          	slli	a4,a5,0x5
1c009370:	9732                	add	a4,a4,a2
1c009372:	40e68733          	sub	a4,a3,a4
		q = (uint64_t)(hi / 5U) << shifts[i];
1c009376:	03c75733          	divu	a4,a4,t3
1c00937a:	01d7d593          	srli	a1,a5,0x1d
		quot += q;
1c00937e:	963a                	add	a2,a2,a4
1c009380:	95c2                	add	a1,a1,a6
1c009382:	00e63733          	sltu	a4,a2,a4
1c009386:	95ba                	add	a1,a1,a4
		exp--;
1c009388:	18fd                	addi	a7,a7,-1
		decexp++;
1c00938a:	0305                	addi	t1,t1,1
			fract <<= 1;
1c00938c:	01f65793          	srli	a5,a2,0x1f
1c009390:	0586                	slli	a1,a1,0x1
		while ((fract >> 32) <= (MAXFP1 / 2)) {
1c009392:	80000737          	lui	a4,0x80000
			fract <<= 1;
1c009396:	8ddd                	or	a1,a1,a5
		while ((fract >> 32) <= (MAXFP1 / 2)) {
1c009398:	fff74713          	not	a4,a4
			fract <<= 1;
1c00939c:	0606                	slli	a2,a2,0x1
			exp--;
1c00939e:	18fd                	addi	a7,a7,-1
		while ((fract >> 32) <= (MAXFP1 / 2)) {
1c0093a0:	feb776e3          	bleu	a1,a4,1c00938c <pos_libc_prf+0x6fa>
1c0093a4:	bf71                	j	1c009340 <pos_libc_prf+0x6ae>
				buf[0] = va_arg(vargs, int);
1c0093a6:	0009a783          	lw	a5,0(s3)
1c0093aa:	0991                	addi	s3,s3,4
1c0093ac:	cc4e                	sw	s3,24(sp)
1c0093ae:	02f10223          	sb	a5,36(sp)
1c0093b2:	1bfd                	addi	s7,s7,-1
1c0093b4:	c402                	sw	zero,8(sp)
			prefix = 0;
1c0093b6:	4a81                	li	s5,0
				clen = 1;
1c0093b8:	4a05                	li	s4,1
			cptr = buf;
1c0093ba:	02410c13          	addi	s8,sp,36
1c0093be:	b679                	j	1c008f4c <pos_libc_prf+0x2ba>
				PUTC('%');
1c0093c0:	85a6                	mv	a1,s1
1c0093c2:	02500513          	li	a0,37
1c0093c6:	9c82                	jalr	s9
1c0093c8:	99f525e3          	p.beqimm	a0,-1,1c008d52 <pos_libc_prf+0xc0>
				PUTC(c);
1c0093cc:	85a6                	mv	a1,s1
1c0093ce:	8556                	mv	a0,s5
1c0093d0:	9c82                	jalr	s9
1c0093d2:	99f520e3          	p.beqimm	a0,-1,1c008d52 <pos_libc_prf+0xc0>
				count += 2;
1c0093d6:	0409                	addi	s0,s0,2
				continue;
1c0093d8:	b8cd                	j	1c008cca <pos_libc_prf+0x38>
				switch (i) {
1c0093da:	04c00693          	li	a3,76
1c0093de:	0049a70b          	p.lw	a4,4(s3!)
1c0093e2:	66d78363          	beq	a5,a3,1c009a48 <pos_libc_prf+0xdb6>
1c0093e6:	2cf6df63          	ble	a5,a3,1c0096c4 <pos_libc_prf+0xa32>
1c0093ea:	06800693          	li	a3,104
1c0093ee:	00d78463          	beq	a5,a3,1c0093f6 <pos_libc_prf+0x764>
					*va_arg(vargs, int *) = count;
1c0093f2:	c300                	sw	s0,0(a4)
					break;
1c0093f4:	b8d9                	j	1c008cca <pos_libc_prf+0x38>
					*va_arg(vargs, short *) = count;
1c0093f6:	87a2                	mv	a5,s0
1c0093f8:	00f71023          	sh	a5,0(a4) # 80000000 <pulp__FC+0x80000001>
					break;
1c0093fc:	b0f9                	j	1c008cca <pos_libc_prf+0x38>
				clen = _to_hex(buf, val, true, 'x');
1c0093fe:	0009a583          	lw	a1,0(s3)
1c009402:	02410d93          	addi	s11,sp,36
1c009406:	07800713          	li	a4,120
1c00940a:	4685                	li	a3,1
1c00940c:	4601                	li	a2,0
1c00940e:	856e                	mv	a0,s11
1c009410:	fc2ff0ef          	jal	ra,1c008bd2 <_to_hex>
				val = (uintptr_t) va_arg(vargs, void *);
1c009414:	0991                	addi	s3,s3,4
				clen = _to_hex(buf, val, true, 'x');
1c009416:	8a2a                	mv	s4,a0
				val = (uintptr_t) va_arg(vargs, void *);
1c009418:	cc4e                	sw	s3,24(sp)
				prefix = 2;
1c00941a:	4a89                	li	s5,2
				break;
1c00941c:	be19                	j	1c008f32 <pos_libc_prf+0x2a0>
					c = *format++;
1c00941e:	001d4a83          	lbu	s5,1(s10)
					i = 'L';
1c009422:	04c00793          	li	a5,76
					c = *format++;
1c009426:	0d09                	addi	s10,s10,2
1c009428:	b2f1                	j	1c008df4 <pos_libc_prf+0x162>
					c = *format++;
1c00942a:	001d4a83          	lbu	s5,1(s10)
					i = 'H';
1c00942e:	04800793          	li	a5,72
					c = *format++;
1c009432:	0d09                	addi	s10,s10,2
1c009434:	b2c1                	j	1c008df4 <pos_libc_prf+0x162>
	if ((exp | fract) != 0) {
1c009436:	4301                	li	t1,0
1c009438:	4881                	li	a7,0
1c00943a:	4601                	li	a2,0
1c00943c:	4581                	li	a1,0
1c00943e:	4791                	li	a5,4
1c009440:	411788b3          	sub	a7,a5,a7
1c009444:	0118c0fb          	lp.setup	x1,a7,1c009466 <pos_libc_prf+0x7d4>
	*v = (*v & 1) + (*v >> 1);
1c009448:	01f59713          	slli	a4,a1,0x1f
1c00944c:	00165793          	srli	a5,a2,0x1
1c009450:	8fd9                	or	a5,a5,a4
1c009452:	fc163633          	p.bclr	a2,a2,30,1
1c009456:	00f60e33          	add	t3,a2,a5
1c00945a:	8185                	srli	a1,a1,0x1
1c00945c:	00ce3633          	sltu	a2,t3,a2
1c009460:	00b607b3          	add	a5,a2,a1
1c009464:	85be                	mv	a1,a5
1c009466:	8672                	mv	a2,t3
	if (precision < 0) {
1c009468:	00095363          	bgez	s2,1c00946e <pos_libc_prf+0x7dc>
		precision = 6;		/* Default precision if none given */
1c00946c:	4919                	li	s2,6
	if ((c == 'g') || (c == 'G')) {
1c00946e:	04700693          	li	a3,71
1c009472:	20d50563          	beq	a0,a3,1c00967c <pos_libc_prf+0x9ea>
	if (c == 'f') {
1c009476:	06600693          	li	a3,102
	prune_zero = false;		/* Assume trailing 0's allowed     */
1c00947a:	4281                	li	t0,0
	if (c == 'f') {
1c00947c:	20da8e63          	beq	s5,a3,1c009698 <pos_libc_prf+0xa06>
1c009480:	00190e93          	addi	t4,s2,1
1c009484:	4741                	li	a4,16
1c009486:	04eeceb3          	p.min	t4,t4,a4
1c00948a:	1efd                	addi	t4,t4,-1
1c00948c:	001f0893          	addi	a7,t5,1
		if (!falt && (precision > 0)) {
1c009490:	4681                	li	a3,0
1c009492:	08000637          	lui	a2,0x8000
		q = (uint64_t)(hi / 5U) << shifts[i];
1c009496:	4f95                	li	t6,5
1c009498:	0e85                	addi	t4,t4,1
1c00949a:	02eec0fb          	lp.setup	x1,t4,1c0094f6 <pos_libc_prf+0x864>
	rem += 2U;
1c00949e:	00268593          	addi	a1,a3,2 # 80000002 <pulp__FC+0x80000003>
1c0094a2:	00d5b733          	sltu	a4,a1,a3
1c0094a6:	9732                	add	a4,a4,a2
		q = (uint64_t)(hi / 5U) << shifts[i];
1c0094a8:	03f75533          	divu	a0,a4,t6
		rem -= q * 5U;
1c0094ac:	00251693          	slli	a3,a0,0x2
1c0094b0:	96aa                	add	a3,a3,a0
1c0094b2:	8f15                	sub	a4,a4,a3
		hi = rem >> shifts[i];
1c0094b4:	0776                	slli	a4,a4,0x1d
1c0094b6:	0035d613          	srli	a2,a1,0x3
1c0094ba:	8e59                	or	a2,a2,a4
		q = (uint64_t)(hi / 5U) << shifts[i];
1c0094bc:	03f65633          	divu	a2,a2,t6
1c0094c0:	00361693          	slli	a3,a2,0x3
		rem -= q * 5U;
1c0094c4:	00561713          	slli	a4,a2,0x5
1c0094c8:	9736                	add	a4,a4,a3
1c0094ca:	40e58733          	sub	a4,a1,a4
		q = (uint64_t)(hi / 5U) << shifts[i];
1c0094ce:	03f75733          	divu	a4,a4,t6
1c0094d2:	8275                	srli	a2,a2,0x1d
		quot += q;
1c0094d4:	96ba                	add	a3,a3,a4
1c0094d6:	00e6b733          	sltu	a4,a3,a4
1c0094da:	962a                	add	a2,a2,a0
1c0094dc:	963a                	add	a2,a2,a4
	*v = (*v & 1) + (*v >> 1);
1c0094de:	01f61513          	slli	a0,a2,0x1f
1c0094e2:	0016d713          	srli	a4,a3,0x1
1c0094e6:	fc16b5b3          	p.bclr	a1,a3,30,1
1c0094ea:	8f49                	or	a4,a4,a0
1c0094ec:	00e586b3          	add	a3,a1,a4
1c0094f0:	8205                	srli	a2,a2,0x1
1c0094f2:	00b6b733          	sltu	a4,a3,a1
1c0094f6:	963a                	add	a2,a2,a4
	fract += ltemp;
1c0094f8:	96f2                	add	a3,a3,t3
1c0094fa:	01c6be33          	sltu	t3,a3,t3
1c0094fe:	963e                	add	a2,a2,a5
1c009500:	00ce07b3          	add	a5,t3,a2
	if ((fract >> 32) & 0xF0000000) {
1c009504:	f607b633          	p.bclr	a2,a5,27,0
	fract += ltemp;
1c009508:	8e36                	mv	t3,a3
	if ((fract >> 32) & 0xF0000000) {
1c00950a:	c22d                	beqz	a2,1c00956c <pos_libc_prf+0x8da>
	rem += 2U;
1c00950c:	002e0693          	addi	a3,t3,2
1c009510:	01c6be33          	sltu	t3,a3,t3
1c009514:	97f2                	add	a5,a5,t3
		q = (uint64_t)(hi / 5U) << shifts[i];
1c009516:	4815                	li	a6,5
1c009518:	0307d533          	divu	a0,a5,a6
		rem -= q * 5U;
1c00951c:	00251613          	slli	a2,a0,0x2
1c009520:	962a                	add	a2,a2,a0
1c009522:	8f91                	sub	a5,a5,a2
		hi = rem >> shifts[i];
1c009524:	07f6                	slli	a5,a5,0x1d
1c009526:	0036d613          	srli	a2,a3,0x3
1c00952a:	8e5d                	or	a2,a2,a5
		q = (uint64_t)(hi / 5U) << shifts[i];
1c00952c:	03065633          	divu	a2,a2,a6
1c009530:	00361593          	slli	a1,a2,0x3
		rem -= q * 5U;
1c009534:	00561793          	slli	a5,a2,0x5
1c009538:	97ae                	add	a5,a5,a1
1c00953a:	40f687b3          	sub	a5,a3,a5
		q = (uint64_t)(hi / 5U) << shifts[i];
1c00953e:	0307d7b3          	divu	a5,a5,a6
1c009542:	8275                	srli	a2,a2,0x1d
		quot += q;
1c009544:	00b786b3          	add	a3,a5,a1
1c009548:	9532                	add	a0,a0,a2
1c00954a:	00f6b7b3          	sltu	a5,a3,a5
1c00954e:	97aa                	add	a5,a5,a0
	*v = (*v & 1) + (*v >> 1);
1c009550:	01f79593          	slli	a1,a5,0x1f
1c009554:	0016d613          	srli	a2,a3,0x1
1c009558:	8e4d                	or	a2,a2,a1
1c00955a:	fc16b6b3          	p.bclr	a3,a3,30,1
1c00955e:	00c68e33          	add	t3,a3,a2
1c009562:	8385                	srli	a5,a5,0x1
1c009564:	00de36b3          	sltu	a3,t3,a3
1c009568:	97b6                	add	a5,a5,a3
		decexp++;
1c00956a:	0305                	addi	t1,t1,1
	if (c == 'f') {
1c00956c:	06600693          	li	a3,102
1c009570:	34da8d63          	beq	s5,a3,1c0098ca <pos_libc_prf+0xc38>
		*fr = *fr * 10U;
1c009574:	002e1693          	slli	a3,t3,0x2
1c009578:	00279613          	slli	a2,a5,0x2
1c00957c:	01ee5513          	srli	a0,t3,0x1e
1c009580:	01c685b3          	add	a1,a3,t3
1c009584:	8e49                	or	a2,a2,a0
1c009586:	00d5b6b3          	sltu	a3,a1,a3
1c00958a:	97b2                	add	a5,a5,a2
1c00958c:	97b6                	add	a5,a5,a3
1c00958e:	0786                	slli	a5,a5,0x1
1c009590:	01f5d693          	srli	a3,a1,0x1f
1c009594:	8fd5                	or	a5,a5,a3
		rval = ((*fr >> 60) & 0xF) + '0';
1c009596:	01c7d693          	srli	a3,a5,0x1c
			decexp--;
1c00959a:	8636                	mv	a2,a3
		rval = ((*fr >> 60) & 0xF) + '0';
1c00959c:	03068693          	addi	a3,a3,48
		*buf = _get_digit(&fract, &digit_count);
1c0095a0:	00df0023          	sb	a3,0(t5)
		if (falt || (precision > 0)) {
1c0095a4:	4712                	lw	a4,4(sp)
		*fr &= 0x0FFFFFFFFFFFFFFFull;
1c0095a6:	100006b7          	lui	a3,0x10000
			decexp--;
1c0095aa:	00c03633          	snez	a2,a2
		*fr &= 0x0FFFFFFFFFFFFFFFull;
1c0095ae:	16fd                	addi	a3,a3,-1
1c0095b0:	0586                	slli	a1,a1,0x1
1c0095b2:	8ff5                	and	a5,a5,a3
			decexp--;
1c0095b4:	40c30333          	sub	t1,t1,a2
		if (falt || (precision > 0)) {
1c0095b8:	be0719e3          	bnez	a4,1c0091aa <pos_libc_prf+0x518>
1c0095bc:	bf205fe3          	blez	s2,1c0091ba <pos_libc_prf+0x528>
			*buf++ = '.';
1c0095c0:	02e00693          	li	a3,46
1c0095c4:	002f0893          	addi	a7,t5,2
1c0095c8:	00df00a3          	sb	a3,1(t5)
		*fr &= 0x0FFFFFFFFFFFFFFFull;
1c0095cc:	453d                	li	a0,15
1c0095ce:	020540fb          	lp.setup	x1,a0,1c00960e <pos_libc_prf+0x97c>
		*fr = *fr * 10U;
1c0095d2:	00259713          	slli	a4,a1,0x2
1c0095d6:	01e5d613          	srli	a2,a1,0x1e
1c0095da:	00279693          	slli	a3,a5,0x2
1c0095de:	95ba                	add	a1,a1,a4
1c0095e0:	8ed1                	or	a3,a3,a2
1c0095e2:	96be                	add	a3,a3,a5
1c0095e4:	00e5b7b3          	sltu	a5,a1,a4
1c0095e8:	97b6                	add	a5,a5,a3
1c0095ea:	01f5d713          	srli	a4,a1,0x1f
1c0095ee:	0786                	slli	a5,a5,0x1
1c0095f0:	8fd9                	or	a5,a5,a4
		rval = ((*fr >> 60) & 0xF) + '0';
1c0095f2:	01c7d713          	srli	a4,a5,0x1c
1c0095f6:	03070713          	addi	a4,a4,48
		*fr &= 0x0FFFFFFFFFFFFFFFull;
1c0095fa:	10000637          	lui	a2,0x10000
1c0095fe:	167d                	addi	a2,a2,-1
			*buf++ = _get_digit(&fract, &digit_count);
1c009600:	00e880ab          	p.sb	a4,1(a7!)
			precision--;
1c009604:	197d                	addi	s2,s2,-1
		*fr = *fr * 10U;
1c009606:	0586                	slli	a1,a1,0x1
		*fr &= 0x0FFFFFFFFFFFFFFFull;
1c009608:	8ff1                	and	a5,a5,a2
		while (precision > 0 && digit_count > 0) {
1c00960a:	ba0908e3          	beqz	s2,1c0091ba <pos_libc_prf+0x528>
1c00960e:	0001                	nop
1c009610:	b66d                	j	1c0091ba <pos_libc_prf+0x528>
1c009612:	02514783          	lbu	a5,37(sp)
					prefix = 1;
1c009616:	4a85                	li	s5,1
1c009618:	beed                	j	1c009212 <pos_libc_prf+0x580>
					val = va_arg(vargs, size_t);
1c00961a:	00498793          	addi	a5,s3,4
1c00961e:	cc3e                	sw	a5,24(sp)
1c009620:	0009ac03          	lw	s8,0(s3)
1c009624:	4a01                	li	s4,0
					break;
1c009626:	be2d                	j	1c009160 <pos_libc_prf+0x4ce>
					prefix = 1;
1c009628:	4a85                	li	s5,1
1c00962a:	b221                	j	1c008f32 <pos_libc_prf+0x2a0>
		*buf++ = c;
1c00962c:	8646                	mv	a2,a7
1c00962e:	0156012b          	p.sb	s5,2(a2!) # 10000002 <__l1_heap_size+0xfff0126>
		if (decexp < 0) {
1c009632:	3e034463          	bltz	t1,1c009a1a <pos_libc_prf+0xd88>
			*buf++ = '+';
1c009636:	02b00793          	li	a5,43
1c00963a:	00f880a3          	sb	a5,1(a7)
		if (decexp >= 100) {
1c00963e:	06300793          	li	a5,99
1c009642:	0067de63          	ble	t1,a5,1c00965e <pos_libc_prf+0x9cc>
			*buf++ = (decexp / 100) + '0';
1c009646:	06400713          	li	a4,100
1c00964a:	02e347b3          	div	a5,t1,a4
			decexp %= 100;
1c00964e:	02e36333          	rem	t1,t1,a4
			*buf++ = (decexp / 100) + '0';
1c009652:	03078793          	addi	a5,a5,48
1c009656:	00388613          	addi	a2,a7,3
1c00965a:	00f88123          	sb	a5,2(a7)
		*buf++ = (decexp / 10) + '0';
1c00965e:	47a9                	li	a5,10
1c009660:	02f34733          	div	a4,t1,a5
		decexp %= 10;
1c009664:	02f367b3          	rem	a5,t1,a5
		*buf++ = (decexp / 10) + '0';
1c009668:	03070713          	addi	a4,a4,48
1c00966c:	88b2                	mv	a7,a2
1c00966e:	00e8812b          	p.sb	a4,2(a7!)
		*buf++ = decexp + '0';
1c009672:	03078793          	addi	a5,a5,48
1c009676:	00f600a3          	sb	a5,1(a2)
1c00967a:	be9d                	j	1c0091f0 <pos_libc_prf+0x55e>
		if (decexp < (-4 + 1) || decexp > precision) {
1c00967c:	56f5                	li	a3,-3
1c00967e:	10d34263          	blt	t1,a3,1c009782 <pos_libc_prf+0xaf0>
1c009682:	10694063          	blt	s2,t1,1c009782 <pos_libc_prf+0xaf0>
		if (!falt && (precision > 0)) {
1c009686:	4692                	lw	a3,4(sp)
			precision -= decexp;
1c009688:	40690933          	sub	s2,s2,t1
	prune_zero = false;		/* Assume trailing 0's allowed     */
1c00968c:	4281                	li	t0,0
		if (!falt && (precision > 0)) {
1c00968e:	e689                	bnez	a3,1c009698 <pos_libc_prf+0xa06>
1c009690:	012022b3          	sgtz	t0,s2
1c009694:	0ff2f293          	andi	t0,t0,255
		exp = precision + decexp;
1c009698:	006906b3          	add	a3,s2,t1
1c00969c:	001f0893          	addi	a7,t5,1
		if (exp < 0) {
1c0096a0:	4206c563          	bltz	a3,1c009aca <pos_libc_prf+0xe38>
1c0096a4:	4641                	li	a2,16
1c0096a6:	04c6ceb3          	p.min	t4,a3,a2
1c0096aa:	1efd                	addi	t4,t4,-1
	while (exp--) {
1c0096ac:	06600a93          	li	s5,102
1c0096b0:	08000637          	lui	a2,0x8000
1c0096b4:	dc069ee3          	bnez	a3,1c009490 <pos_libc_prf+0x7fe>
1c0096b8:	b581                	j	1c0094f8 <pos_libc_prf+0x866>
					precision = INT_MAX;
1c0096ba:	80000637          	lui	a2,0x80000
1c0096be:	fff64913          	not	s2,a2
1c0096c2:	ba65                	j	1c00907a <pos_libc_prf+0x3e8>
				switch (i) {
1c0096c4:	04800693          	li	a3,72
1c0096c8:	d2d795e3          	bne	a5,a3,1c0093f2 <pos_libc_prf+0x760>
					*va_arg(vargs, char *) = count;
1c0096cc:	87a2                	mv	a5,s0
1c0096ce:	00f70023          	sb	a5,0(a4)
					break;
1c0096d2:	df8ff06f          	j	1c008cca <pos_libc_prf+0x38>
	} else if (fspace) {
1c0096d6:	4742                	lw	a4,16(sp)
1c0096d8:	1e070363          	beqz	a4,1c0098be <pos_libc_prf+0xc2c>
		*buf++ = ' ';
1c0096dc:	02000713          	li	a4,32
1c0096e0:	fccff06f          	j	1c008eac <pos_libc_prf+0x21a>
		*buf++ = '-';
1c0096e4:	02d00613          	li	a2,45
		value = -value;
1c0096e8:	40f007b3          	neg	a5,a5
1c0096ec:	00f036b3          	snez	a3,a5
1c0096f0:	40e00733          	neg	a4,a4
		*buf++ = '-';
1c0096f4:	02c10223          	sb	a2,36(sp)
1c0096f8:	02510613          	addi	a2,sp,37
		value = -value;
1c0096fc:	8f15                	sub	a4,a4,a3
		*buf++ = '-';
1c0096fe:	ce32                	sw	a2,28(sp)
1c009700:	02410d93          	addi	s11,sp,36
1c009704:	fb8ff06f          	j	1c008ebc <pos_libc_prf+0x22a>
		*buf++ = '-';
1c009708:	02d00793          	li	a5,45
1c00970c:	02f10223          	sb	a5,36(sp)
1c009710:	02510f13          	addi	t5,sp,37
1c009714:	02410d93          	addi	s11,sp,36
1c009718:	beb9                	j	1c009276 <pos_libc_prf+0x5e4>
		if (!fract) {
1c00971a:	00b666b3          	or	a3,a2,a1
1c00971e:	fbfa8713          	addi	a4,s5,-65
1c009722:	003f0893          	addi	a7,t5,3
			if (isupper(c)) {
1c009726:	47e5                	li	a5,25
		if (!fract) {
1c009728:	2c069063          	bnez	a3,1c0099e8 <pos_libc_prf+0xd56>
			if (isupper(c)) {
1c00972c:	38e7e563          	bltu	a5,a4,1c009ab6 <pos_libc_prf+0xe24>
				*buf++ = 'I';
1c009730:	6795                	lui	a5,0x5
1c009732:	e4978793          	addi	a5,a5,-439 # 4e49 <pos_soc_event_callback+0x4a01>
1c009736:	00ff1023          	sh	a5,0(t5)
				*buf++ = 'N';
1c00973a:	04600793          	li	a5,70
1c00973e:	00ff0123          	sb	a5,2(t5)
		*buf = 0;
1c009742:	000f01a3          	sb	zero,3(t5)
		return buf - start;
1c009746:	41b888b3          	sub	a7,a7,s11
1c00974a:	4681                	li	a3,0
			zero.predot = zero.postdot = zero.trail = 0;
1c00974c:	4901                	li	s2,0
1c00974e:	c202                	sw	zero,4(sp)
1c009750:	4981                	li	s3,0
1c009752:	b45d                	j	1c0091f8 <pos_libc_prf+0x566>
	} else if (fspace) {
1c009754:	47c2                	lw	a5,16(sp)
1c009756:	cff1                	beqz	a5,1c009832 <pos_libc_prf+0xba0>
		*buf++ = ' ';
1c009758:	02000793          	li	a5,32
1c00975c:	02f10223          	sb	a5,36(sp)
1c009760:	02510f13          	addi	t5,sp,37
1c009764:	02410d93          	addi	s11,sp,36
1c009768:	b639                	j	1c009276 <pos_libc_prf+0x5e4>
					val = va_arg(vargs, unsigned long long);
1c00976a:	00798793          	addi	a5,s3,7
1c00976e:	c407b7b3          	p.bclr	a5,a5,2,0
1c009772:	00878613          	addi	a2,a5,8
1c009776:	cc32                	sw	a2,24(sp)
1c009778:	0007ac03          	lw	s8,0(a5)
1c00977c:	0047aa03          	lw	s4,4(a5)
					break;
1c009780:	b2c5                	j	1c009160 <pos_libc_prf+0x4ce>
			c += 'e' - 'g';
1c009782:	ffea8713          	addi	a4,s5,-2
1c009786:	0ff77a93          	andi	s5,a4,255
			if (precision > 0) {
1c00978a:	36090763          	beqz	s2,1c009af8 <pos_libc_prf+0xe66>
		if (!falt && (precision > 0)) {
1c00978e:	4612                	lw	a2,4(sp)
				precision--;
1c009790:	fff90693          	addi	a3,s2,-1
		if (!falt && (precision > 0)) {
1c009794:	26061663          	bnez	a2,1c009a00 <pos_libc_prf+0xd6e>
1c009798:	00d022b3          	sgtz	t0,a3
1c00979c:	0ff2f293          	andi	t0,t0,255
				precision--;
1c0097a0:	8936                	mv	s2,a3
1c0097a2:	b9f9                	j	1c009480 <pos_libc_prf+0x7ee>
	if (prune_zero) {
1c0097a4:	86ca                	mv	a3,s2
			zero.predot = zero.postdot = zero.trail = 0;
1c0097a6:	c202                	sw	zero,4(sp)
1c0097a8:	4981                	li	s3,0
1c0097aa:	bc2d                	j	1c0091e4 <pos_libc_prf+0x552>
1c0097ac:	8aee                	mv	s5,s11
1c0097ae:	a011                	j	1c0097b2 <pos_libc_prf+0xb20>
	} while (n);
1c0097b0:	8aba                	mv	s5,a4
		unsigned int d = n % base;
1c0097b2:	4629                	li	a2,10
1c0097b4:	4681                	li	a3,0
1c0097b6:	8562                	mv	a0,s8
1c0097b8:	85d2                	mv	a1,s4
1c0097ba:	c1ffe0ef          	jal	ra,1c0083d8 <__umoddi3>
1c0097be:	89aa                	mv	s3,a0
		n /= base;
1c0097c0:	85d2                	mv	a1,s4
1c0097c2:	8562                	mv	a0,s8
1c0097c4:	4681                	li	a3,0
1c0097c6:	4629                	li	a2,10
1c0097c8:	8d5fe0ef          	jal	ra,1c00809c <__udivdi3>
		*buf++ = '0' + d + (d > 9 ? ('a' - '0' - 10) : 0);
1c0097cc:	03098793          	addi	a5,s3,48
1c0097d0:	0ff7f793          	andi	a5,a5,255
1c0097d4:	00fa8023          	sb	a5,0(s5)
	} while (n);
1c0097d8:	00a5e6b3          	or	a3,a1,a0
		*buf++ = '0' + d + (d > 9 ? ('a' - '0' - 10) : 0);
1c0097dc:	001a8713          	addi	a4,s5,1
		n /= base;
1c0097e0:	8c2a                	mv	s8,a0
1c0097e2:	8a2e                	mv	s4,a1
	} while (n);
1c0097e4:	f6f1                	bnez	a3,1c0097b0 <pos_libc_prf+0xb1e>
	*buf = 0;
1c0097e6:	00070023          	sb	zero,0(a4)
	len = buf - start;
1c0097ea:	41b70a33          	sub	s4,a4,s11
	for (buf--; buf > start; buf--, start++) {
1c0097ee:	015dfe63          	bleu	s5,s11,1c00980a <pos_libc_prf+0xb78>
1c0097f2:	876e                	mv	a4,s11
1c0097f4:	a019                	j	1c0097fa <pos_libc_prf+0xb68>
1c0097f6:	000ac783          	lbu	a5,0(s5)
		*buf = *start;
1c0097fa:	00074683          	lbu	a3,0(a4)
1c0097fe:	feda8fab          	p.sb	a3,-1(s5!)
		*start = tmp;
1c009802:	00f700ab          	p.sb	a5,1(a4!)
	for (buf--; buf > start; buf--, start++) {
1c009806:	ff5768e3          	bltu	a4,s5,1c0097f6 <pos_libc_prf+0xb64>
			prefix = 0;
1c00980a:	4a81                	li	s5,0
1c00980c:	f26ff06f          	j	1c008f32 <pos_libc_prf+0x2a0>
					val = va_arg(vargs, long long);
1c009810:	00798713          	addi	a4,s3,7
1c009814:	c4073733          	p.bclr	a4,a4,2,0
1c009818:	00870793          	addi	a5,a4,8
1c00981c:	cc3e                	sw	a5,24(sp)
1c00981e:	431c                	lw	a5,0(a4)
1c009820:	4358                	lw	a4,4(a4)
1c009822:	c23a                	sw	a4,4(sp)
					break;
1c009824:	e78ff06f          	j	1c008e9c <pos_libc_prf+0x20a>
	if (c == 'F') {
1c009828:	04600513          	li	a0,70
		c = 'f';
1c00982c:	06600a93          	li	s5,102
1c009830:	bca9                	j	1c00928a <pos_libc_prf+0x5f8>
	} else if (fspace) {
1c009832:	02410d93          	addi	s11,sp,36
1c009836:	8f6e                	mv	t5,s11
1c009838:	bc3d                	j	1c009276 <pos_libc_prf+0x5e4>
	if (alt_form) {
1c00983a:	4792                	lw	a5,4(sp)
1c00983c:	1c078963          	beqz	a5,1c009a0e <pos_libc_prf+0xd7c>
		*buf++ = '0';
1c009840:	03000793          	li	a5,48
1c009844:	02f10223          	sb	a5,36(sp)
		if (!value) {
1c009848:	014c67b3          	or	a5,s8,s4
1c00984c:	24078563          	beqz	a5,1c009a96 <pos_libc_prf+0xe04>
1c009850:	02510813          	addi	a6,sp,37
1c009854:	4585                	li	a1,1
		*buf++ = '0';
1c009856:	87c2                	mv	a5,a6
1c009858:	02410d93          	addi	s11,sp,36
1c00985c:	873e                	mv	a4,a5
1c00985e:	a011                	j	1c009862 <pos_libc_prf+0xbd0>
	} while (n);
1c009860:	8736                	mv	a4,a3
		n /= base;
1c009862:	01da1693          	slli	a3,s4,0x1d
		unsigned int d = n % base;
1c009866:	f83c3633          	p.bclr	a2,s8,28,3
		n /= base;
1c00986a:	003c5c13          	srli	s8,s8,0x3
1c00986e:	0186ec33          	or	s8,a3,s8
1c009872:	003a5a13          	srli	s4,s4,0x3
		*buf++ = '0' + d + (d > 9 ? ('a' - '0' - 10) : 0);
1c009876:	03060613          	addi	a2,a2,48 # 80000030 <pulp__FC+0x80000031>
1c00987a:	00c70023          	sb	a2,0(a4)
	} while (n);
1c00987e:	014c6533          	or	a0,s8,s4
		*buf++ = '0' + d + (d > 9 ? ('a' - '0' - 10) : 0);
1c009882:	00170693          	addi	a3,a4,1
	} while (n);
1c009886:	fd69                	bnez	a0,1c009860 <pos_libc_prf+0xbce>
	*buf = 0;
1c009888:	00068023          	sb	zero,0(a3) # 10000000 <__l1_heap_size+0xfff0124>
	len = buf - start;
1c00988c:	410686b3          	sub	a3,a3,a6
	for (buf--; buf > start; buf--, start++) {
1c009890:	00e7e563          	bltu	a5,a4,1c00989a <pos_libc_prf+0xc08>
1c009894:	a819                	j	1c0098aa <pos_libc_prf+0xc18>
1c009896:	00074603          	lbu	a2,0(a4)
		*buf = *start;
1c00989a:	0007c503          	lbu	a0,0(a5)
1c00989e:	fea70fab          	p.sb	a0,-1(a4!)
		*start = tmp;
1c0098a2:	00c780ab          	p.sb	a2,1(a5!)
	for (buf--; buf > start; buf--, start++) {
1c0098a6:	fee7e8e3          	bltu	a5,a4,1c009896 <pos_libc_prf+0xc04>
	return (buf - buf0) + _to_x(buf, value, 8);
1c0098aa:	00b68a33          	add	s4,a3,a1
			prefix = 0;
1c0098ae:	4a81                	li	s5,0
1c0098b0:	e82ff06f          	j	1c008f32 <pos_libc_prf+0x2a0>
					if (cptr[clen] == '\0') {
1c0098b4:	c402                	sw	zero,8(sp)
1c0098b6:	4a81                	li	s5,0
				for (clen = 0; clen < precision; clen++) {
1c0098b8:	4a01                	li	s4,0
1c0098ba:	e92ff06f          	j	1c008f4c <pos_libc_prf+0x2ba>
	} else if (fspace) {
1c0098be:	02410d93          	addi	s11,sp,36
1c0098c2:	4712                	lw	a4,4(sp)
1c0098c4:	ce6e                	sw	s11,28(sp)
1c0098c6:	df6ff06f          	j	1c008ebc <pos_libc_prf+0x22a>
		if (decexp > 0) {
1c0098ca:	18605963          	blez	t1,1c009a5c <pos_libc_prf+0xdca>
		*fr = *fr * 10U;
1c0098ce:	002e1713          	slli	a4,t3,0x2
1c0098d2:	01ee5613          	srli	a2,t3,0x1e
1c0098d6:	00279693          	slli	a3,a5,0x2
1c0098da:	9e3a                	add	t3,t3,a4
1c0098dc:	8ed1                	or	a3,a3,a2
1c0098de:	96be                	add	a3,a3,a5
1c0098e0:	00ee37b3          	sltu	a5,t3,a4
1c0098e4:	97b6                	add	a5,a5,a3
1c0098e6:	01fe5713          	srli	a4,t3,0x1f
1c0098ea:	0786                	slli	a5,a5,0x1
1c0098ec:	8fd9                	or	a5,a5,a4
		rval = ((*fr >> 60) & 0xF) + '0';
1c0098ee:	01c7d713          	srli	a4,a5,0x1c
1c0098f2:	03070713          	addi	a4,a4,48
		*fr &= 0x0FFFFFFFFFFFFFFFull;
1c0098f6:	10000637          	lui	a2,0x10000
				*buf++ = _get_digit(&fract, &digit_count);
1c0098fa:	00ef0023          	sb	a4,0(t5)
		*fr &= 0x0FFFFFFFFFFFFFFFull;
1c0098fe:	167d                	addi	a2,a2,-1
				decexp--;
1c009900:	fff30993          	addi	s3,t1,-1
		*fr = *fr * 10U;
1c009904:	0e06                	slli	t3,t3,0x1
		*fr &= 0x0FFFFFFFFFFFFFFFull;
1c009906:	8ff1                	and	a5,a5,a2
1c009908:	473d                	li	a4,15
			while (decexp > 0 && digit_count > 0) {
1c00990a:	04098963          	beqz	s3,1c00995c <pos_libc_prf+0xcca>
1c00990e:	40670333          	sub	t1,a4,t1
		*fr &= 0x0FFFFFFFFFFFFFFFull;
1c009912:	463d                	li	a2,15
1c009914:	022640fb          	lp.setup	x1,a2,1c009958 <pos_libc_prf+0xcc6>
		*fr = *fr * 10U;
1c009918:	002e1713          	slli	a4,t3,0x2
1c00991c:	01ee5593          	srli	a1,t3,0x1e
1c009920:	00279693          	slli	a3,a5,0x2
1c009924:	9e3a                	add	t3,t3,a4
1c009926:	8ecd                	or	a3,a3,a1
1c009928:	96be                	add	a3,a3,a5
1c00992a:	00ee37b3          	sltu	a5,t3,a4
1c00992e:	97b6                	add	a5,a5,a3
1c009930:	01fe5713          	srli	a4,t3,0x1f
1c009934:	0786                	slli	a5,a5,0x1
1c009936:	8fd9                	or	a5,a5,a4
		rval = ((*fr >> 60) & 0xF) + '0';
1c009938:	01c7d693          	srli	a3,a5,0x1c
1c00993c:	03068693          	addi	a3,a3,48
				*buf++ = _get_digit(&fract, &digit_count);
1c009940:	00d880ab          	p.sb	a3,1(a7!)
		*fr &= 0x0FFFFFFFFFFFFFFFull;
1c009944:	100006b7          	lui	a3,0x10000
1c009948:	01330733          	add	a4,t1,s3
1c00994c:	16fd                	addi	a3,a3,-1
				decexp--;
1c00994e:	19fd                	addi	s3,s3,-1
		*fr = *fr * 10U;
1c009950:	0e06                	slli	t3,t3,0x1
		*fr &= 0x0FFFFFFFFFFFFFFFull;
1c009952:	8ff5                	and	a5,a5,a3
			while (decexp > 0 && digit_count > 0) {
1c009954:	00098463          	beqz	s3,1c00995c <pos_libc_prf+0xcca>
1c009958:	0001                	nop
1c00995a:	4701                	li	a4,0
		if (falt || (precision > 0)) {
1c00995c:	4612                	lw	a2,4(sp)
1c00995e:	14060763          	beqz	a2,1c009aac <pos_libc_prf+0xe1a>
			*buf++ = '.';
1c009962:	02e00693          	li	a3,46
1c009966:	00d88023          	sb	a3,0(a7)
			zero.predot = zero.postdot = zero.trail = 0;
1c00996a:	c202                	sw	zero,4(sp)
			decexp = 0;
1c00996c:	4301                	li	t1,0
			*buf++ = '.';
1c00996e:	0885                	addi	a7,a7,1
		while (precision > 0 && digit_count > 0) {
1c009970:	05205563          	blez	s2,1c0099ba <pos_libc_prf+0xd28>
1c009974:	c339                	beqz	a4,1c0099ba <pos_libc_prf+0xd28>
1c009976:	00e88633          	add	a2,a7,a4
		*fr = *fr * 10U;
1c00997a:	002e1713          	slli	a4,t3,0x2
1c00997e:	01ee5593          	srli	a1,t3,0x1e
1c009982:	00279693          	slli	a3,a5,0x2
1c009986:	9e3a                	add	t3,t3,a4
1c009988:	8ecd                	or	a3,a3,a1
1c00998a:	96be                	add	a3,a3,a5
1c00998c:	00ee37b3          	sltu	a5,t3,a4
1c009990:	97b6                	add	a5,a5,a3
1c009992:	01fe5713          	srli	a4,t3,0x1f
1c009996:	0786                	slli	a5,a5,0x1
1c009998:	8fd9                	or	a5,a5,a4
		rval = ((*fr >> 60) & 0xF) + '0';
1c00999a:	01c7d713          	srli	a4,a5,0x1c
1c00999e:	03070713          	addi	a4,a4,48
			*buf++ = _get_digit(&fract, &digit_count);
1c0099a2:	00e880ab          	p.sb	a4,1(a7!)
		*fr &= 0x0FFFFFFFFFFFFFFFull;
1c0099a6:	10000737          	lui	a4,0x10000
1c0099aa:	177d                	addi	a4,a4,-1
			precision--;
1c0099ac:	197d                	addi	s2,s2,-1
		*fr = *fr * 10U;
1c0099ae:	0e06                	slli	t3,t3,0x1
		*fr &= 0x0FFFFFFFFFFFFFFFull;
1c0099b0:	8ff9                	and	a5,a5,a4
		while (precision > 0 && digit_count > 0) {
1c0099b2:	00090463          	beqz	s2,1c0099ba <pos_libc_prf+0xd28>
1c0099b6:	fcc892e3          	bne	a7,a2,1c00997a <pos_libc_prf+0xce8>
1c0099ba:	4792                	lw	a5,4(sp)
1c0099bc:	013786b3          	add	a3,a5,s3
	if (prune_zero) {
1c0099c0:	08029a63          	bnez	t0,1c009a54 <pos_libc_prf+0xdc2>
1c0099c4:	96ca                	add	a3,a3,s2
1c0099c6:	b02d                	j	1c0091f0 <pos_libc_prf+0x55e>
			clen -= prefix;
1c0099c8:	4db2                	lw	s11,12(sp)
1c0099ca:	8a4e                	mv	s4,s3
				while (zero.predot-- > 0) {
1c0099cc:	a029                	j	1c0099d6 <pos_libc_prf+0xd44>
					PUTC('0');
1c0099ce:	9c82                	jalr	s9
1c0099d0:	1a7d                	addi	s4,s4,-1
1c0099d2:	b9f52063          	p.beqimm	a0,-1,1c008d52 <pos_libc_prf+0xc0>
1c0099d6:	85a6                	mv	a1,s1
1c0099d8:	03000513          	li	a0,48
				while (zero.predot-- > 0) {
1c0099dc:	fe0a19e3          	bnez	s4,1c0099ce <pos_libc_prf+0xd3c>
				clen -= zero.predot;
1c0099e0:	413d8db3          	sub	s11,s11,s3
1c0099e4:	dc8ff06f          	j	1c008fac <pos_libc_prf+0x31a>
			if (isupper(c)) {
1c0099e8:	10e7ef63          	bltu	a5,a4,1c009b06 <pos_libc_prf+0xe74>
				*buf++ = 'N';
1c0099ec:	6791                	lui	a5,0x4
1c0099ee:	14e78793          	addi	a5,a5,334 # 414e <pos_soc_event_callback+0x3d06>
1c0099f2:	00ff1023          	sh	a5,0(t5)
				*buf++ = 'A';
1c0099f6:	04e00793          	li	a5,78
1c0099fa:	00ff0123          	sb	a5,2(t5)
1c0099fe:	b391                	j	1c009742 <pos_libc_prf+0xab0>
1c009a00:	4741                	li	a4,16
1c009a02:	04e94eb3          	p.min	t4,s2,a4
1c009a06:	1efd                	addi	t4,t4,-1
				precision--;
1c009a08:	8936                	mv	s2,a3
		if (!falt && (precision > 0)) {
1c009a0a:	4281                	li	t0,0
1c009a0c:	b441                	j	1c00948c <pos_libc_prf+0x7fa>
1c009a0e:	02410d93          	addi	s11,sp,36
1c009a12:	886e                	mv	a6,s11
	if (alt_form) {
1c009a14:	4581                	li	a1,0
1c009a16:	87ee                	mv	a5,s11
1c009a18:	b591                	j	1c00985c <pos_libc_prf+0xbca>
			*buf++ = '-';
1c009a1a:	02d00793          	li	a5,45
			decexp = -decexp;
1c009a1e:	40600333          	neg	t1,t1
			*buf++ = '-';
1c009a22:	00f880a3          	sb	a5,1(a7)
1c009a26:	b921                	j	1c00963e <pos_libc_prf+0x9ac>
1c009a28:	4992                	lw	s3,4(sp)
1c009a2a:	a029                	j	1c009a34 <pos_libc_prf+0xda2>
					PUTC('0');
1c009a2c:	9c82                	jalr	s9
1c009a2e:	19fd                	addi	s3,s3,-1
1c009a30:	b3f52163          	p.beqimm	a0,-1,1c008d52 <pos_libc_prf+0xc0>
1c009a34:	85a6                	mv	a1,s1
1c009a36:	03000513          	li	a0,48
				while (zero.postdot-- > 0) {
1c009a3a:	ff3049e3          	bgtz	s3,1c009a2c <pos_libc_prf+0xd9a>
				clen -= zero.postdot;
1c009a3e:	4712                	lw	a4,4(sp)
1c009a40:	40ed8db3          	sub	s11,s11,a4
1c009a44:	d6eff06f          	j	1c008fb2 <pos_libc_prf+0x320>
					*va_arg(vargs, long long *) = count;
1c009a48:	41f45793          	srai	a5,s0,0x1f
1c009a4c:	c300                	sw	s0,0(a4)
1c009a4e:	c35c                	sw	a5,4(a4)
					break;
1c009a50:	a7aff06f          	j	1c008cca <pos_libc_prf+0x38>
	if (prune_zero) {
1c009a54:	06600a93          	li	s5,102
1c009a58:	f6cff06f          	j	1c0091c4 <pos_libc_prf+0x532>
			*buf++ = '0';
1c009a5c:	03000713          	li	a4,48
		if (falt || (precision > 0)) {
1c009a60:	4692                	lw	a3,4(sp)
			*buf++ = '0';
1c009a62:	00ef0023          	sb	a4,0(t5)
		if (falt || (precision > 0)) {
1c009a66:	eea5                	bnez	a3,1c009ade <pos_libc_prf+0xe4c>
1c009a68:	09205563          	blez	s2,1c009af2 <pos_libc_prf+0xe60>
			*buf++ = '.';
1c009a6c:	02e00713          	li	a4,46
1c009a70:	00188693          	addi	a3,a7,1
1c009a74:	00e88023          	sb	a4,0(a7)
1c009a78:	88b6                	mv	a7,a3
		if (decexp < 0 && precision > 0) {
1c009a7a:	0a030863          	beqz	t1,1c009b2a <pos_libc_prf+0xe98>
			zp->postdot = -decexp;
1c009a7e:	40600c33          	neg	s8,t1
1c009a82:	052c4c33          	p.min	s8,s8,s2
1c009a86:	c262                	sw	s8,4(sp)
			precision -= zp->postdot;
1c009a88:	41890933          	sub	s2,s2,s8
1c009a8c:	4741                	li	a4,16
1c009a8e:	4981                	li	s3,0
		while (precision > 0 && digit_count > 0) {
1c009a90:	ef2042e3          	bgtz	s2,1c009974 <pos_libc_prf+0xce2>
1c009a94:	b71d                	j	1c0099ba <pos_libc_prf+0xd28>
			*buf++ = 0;
1c009a96:	020102a3          	sb	zero,37(sp)
			prefix = 0;
1c009a9a:	4a81                	li	s5,0
			return 1;
1c009a9c:	4a05                	li	s4,1
1c009a9e:	02410d93          	addi	s11,sp,36
1c009aa2:	c90ff06f          	j	1c008f32 <pos_libc_prf+0x2a0>
1c009aa6:	49e2                	lw	s3,24(sp)
1c009aa8:	a22ff06f          	j	1c008cca <pos_libc_prf+0x38>
		if (falt || (precision > 0)) {
1c009aac:	09204b63          	bgtz	s2,1c009b42 <pos_libc_prf+0xeb0>
			decexp = 0;
1c009ab0:	4301                	li	t1,0
			zero.predot = zero.postdot = zero.trail = 0;
1c009ab2:	c202                	sw	zero,4(sp)
1c009ab4:	b719                	j	1c0099ba <pos_libc_prf+0xd28>
				*buf++ = 'i';
1c009ab6:	679d                	lui	a5,0x7
1c009ab8:	e6978793          	addi	a5,a5,-407 # 6e69 <pos_soc_event_callback+0x6a21>
1c009abc:	00ff1023          	sh	a5,0(t5)
				*buf++ = 'n';
1c009ac0:	06600793          	li	a5,102
1c009ac4:	00ff0123          	sb	a5,2(t5)
1c009ac8:	b9ad                	j	1c009742 <pos_libc_prf+0xab0>
	fract += ltemp;
1c009aca:	08000737          	lui	a4,0x8000
1c009ace:	97ba                	add	a5,a5,a4
	if ((fract >> 32) & 0xF0000000) {
1c009ad0:	f607b733          	p.bclr	a4,a5,27,0
1c009ad4:	de070be3          	beqz	a4,1c0098ca <pos_libc_prf+0xc38>
1c009ad8:	06600a93          	li	s5,102
1c009adc:	bc05                	j	1c00950c <pos_libc_prf+0x87a>
			*buf++ = '.';
1c009ade:	02e00713          	li	a4,46
1c009ae2:	00ef00a3          	sb	a4,1(t5)
1c009ae6:	002f0893          	addi	a7,t5,2
		if (decexp < 0 && precision > 0) {
1c009aea:	02030a63          	beqz	t1,1c009b1e <pos_libc_prf+0xe8c>
1c009aee:	f92048e3          	bgtz	s2,1c009a7e <pos_libc_prf+0xdec>
			zero.predot = zero.postdot = zero.trail = 0;
1c009af2:	4981                	li	s3,0
1c009af4:	c202                	sw	zero,4(sp)
1c009af6:	b5d1                	j	1c0099ba <pos_libc_prf+0xd28>
		if (!falt && (precision > 0)) {
1c009af8:	4692                	lw	a3,4(sp)
1c009afa:	c285                	beqz	a3,1c009b1a <pos_libc_prf+0xe88>
1c009afc:	001f0893          	addi	a7,t5,1
1c009b00:	4e81                	li	t4,0
1c009b02:	4281                	li	t0,0
1c009b04:	b271                	j	1c009490 <pos_libc_prf+0x7fe>
				*buf++ = 'n';
1c009b06:	6799                	lui	a5,0x6
1c009b08:	16e78793          	addi	a5,a5,366 # 616e <pos_soc_event_callback+0x5d26>
1c009b0c:	00ff1023          	sh	a5,0(t5)
				*buf++ = 'a';
1c009b10:	06e00793          	li	a5,110
1c009b14:	00ff0123          	sb	a5,2(t5)
1c009b18:	b12d                	j	1c009742 <pos_libc_prf+0xab0>
	prune_zero = false;		/* Assume trailing 0's allowed     */
1c009b1a:	4281                	li	t0,0
1c009b1c:	b295                	j	1c009480 <pos_libc_prf+0x7ee>
		while (precision > 0 && digit_count > 0) {
1c009b1e:	fd205ae3          	blez	s2,1c009af2 <pos_libc_prf+0xe60>
			zero.predot = zero.postdot = zero.trail = 0;
1c009b22:	4981                	li	s3,0
1c009b24:	c202                	sw	zero,4(sp)
	digit_count = 16;
1c009b26:	4741                	li	a4,16
1c009b28:	b5b9                	j	1c009976 <pos_libc_prf+0xce4>
1c009b2a:	4741                	li	a4,16
			zero.predot = zero.postdot = zero.trail = 0;
1c009b2c:	c202                	sw	zero,4(sp)
1c009b2e:	899a                	mv	s3,t1
			*buf++ = '.';
1c009b30:	88b6                	mv	a7,a3
1c009b32:	4301                	li	t1,0
		while (precision > 0 && digit_count > 0) {
1c009b34:	e40711e3          	bnez	a4,1c009976 <pos_libc_prf+0xce4>
1c009b38:	b549                	j	1c0099ba <pos_libc_prf+0xd28>
		exp -= (1023 - 1);	/* +1 since .1 vs 1. */
1c009b3a:	c0200893          	li	a7,-1022
1c009b3e:	f94ff06f          	j	1c0092d2 <pos_libc_prf+0x640>
			*buf++ = '.';
1c009b42:	02e00613          	li	a2,46
1c009b46:	00188693          	addi	a3,a7,1
1c009b4a:	00c88023          	sb	a2,0(a7)
			zp->predot = decexp;
1c009b4e:	834e                	mv	t1,s3
1c009b50:	bff1                	j	1c009b2c <pos_libc_prf+0xe9a>
				clen -= zero.trail;
1c009b52:	412d8db3          	sub	s11,s11,s2
1c009b56:	d70ff06f          	j	1c0090c6 <pos_libc_prf+0x434>

1c009b5a <pos_init_start>:
}



void pos_init_start()
{
1c009b5a:	1141                	addi	sp,sp,-16
1c009b5c:	c422                	sw	s0,8(sp)
    for(fpp = ctor_list+1;  *fpp != 0;  ++fpp)
1c009b5e:	1c001437          	lui	s0,0x1c001
{
1c009b62:	c606                	sw	ra,12(sp)
    for(fpp = ctor_list+1;  *fpp != 0;  ++fpp)
1c009b64:	84c40413          	addi	s0,s0,-1972 # 1c00084c <ctor_list>
  hal_pmu_bypass_set (ARCHI_REG_FIELD_SET (hal_pmu_bypass_get (), 1, 11, 1) );
#endif

  INIT_TRACE(POS_LOG_INFO, "Starting runtime initialization\n");

  pos_irq_init();
1c009b68:	2c79                	jal	1c009e06 <pos_irq_init>

  pos_soc_init();
1c009b6a:	f15fe0ef          	jal	ra,1c008a7e <pos_soc_init>

  pos_soc_event_init();
1c009b6e:	24e9                	jal	1c009e38 <pos_soc_event_init>

  // Initialize first the memory allocators and the utils so that they are
  // available for constructors, especially to let them declare
  // callbacks
  //__rt_utils_init();
  pos_allocs_init();
1c009b70:	2a65                	jal	1c009d28 <pos_allocs_init>

  // Scheduler is initialized now to let other modules use it early
  pos_sched_init();
1c009b72:	284d                	jal	1c009c24 <pos_sched_init>
    for(fpp = ctor_list+1;  *fpp != 0;  ++fpp)
1c009b74:	405c                	lw	a5,4(s0)
1c009b76:	c791                	beqz	a5,1c009b82 <pos_init_start+0x28>
1c009b78:	0421                	addi	s0,s0,8
        (**fpp)();
1c009b7a:	9782                	jalr	a5
    for(fpp = ctor_list+1;  *fpp != 0;  ++fpp)
1c009b7c:	0044278b          	p.lw	a5,4(s0!)
1c009b80:	ffed                	bnez	a5,1c009b7a <pos_init_start+0x20>
  // Call global and static constructors
  // Each module may do private initializations there
  pos_init_do_ctors();

  // Now that the system is ready, activate IO
  pos_io_start();
1c009b82:	81aff0ef          	jal	ra,1c008b9c <pos_io_start>

static inline void hal_irq_enable()
{
  // This memory barrier is needed to prevent the compiler to cross the irq barrier
  __asm__ __volatile__ ("" : : : "memory");
  hal_spr_read_then_set(0x300, 0x1<<3);
1c009b86:	300467f3          	csrrsi	a5,mstatus,8

  // Now now the minimal init are done, we can activate interruptions
  hal_irq_enable();
}
1c009b8a:	40b2                	lw	ra,12(sp)
1c009b8c:	4422                	lw	s0,8(sp)
1c009b8e:	0141                	addi	sp,sp,16
1c009b90:	8082                	ret

1c009b92 <pos_init_stop>:


void pos_init_stop()
{
1c009b92:	1141                	addi	sp,sp,-16
1c009b94:	c422                	sw	s0,8(sp)
    for(fpp = dtor_list + 1;  *fpp != 0;  ++fpp)
1c009b96:	1c001437          	lui	s0,0x1c001
{
1c009b9a:	c606                	sw	ra,12(sp)
    for(fpp = dtor_list + 1;  *fpp != 0;  ++fpp)
1c009b9c:	86040413          	addi	s0,s0,-1952 # 1c000860 <dtor_list>
    // Close IO to flush them
    pos_io_stop();
1c009ba0:	800ff0ef          	jal	ra,1c008ba0 <pos_io_stop>
    for(fpp = dtor_list + 1;  *fpp != 0;  ++fpp)
1c009ba4:	405c                	lw	a5,4(s0)
1c009ba6:	c791                	beqz	a5,1c009bb2 <pos_init_stop+0x20>
1c009ba8:	0421                	addi	s0,s0,8
        (**fpp)();
1c009baa:	9782                	jalr	a5
    for(fpp = dtor_list + 1;  *fpp != 0;  ++fpp)
1c009bac:	0044278b          	p.lw	a5,4(s0!)
1c009bb0:	ffed                	bnez	a5,1c009baa <pos_init_stop+0x18>

    /* Call global and static destructors */
    pos_init_do_dtors();
}
1c009bb2:	40b2                	lw	ra,12(sp)
1c009bb4:	4422                	lw	s0,8(sp)
1c009bb6:	0141                	addi	sp,sp,16
1c009bb8:	8082                	ret

1c009bba <pos_cbsys_add>:

void pos_cbsys_add(pos_cbsys_t *cbsys, pos_cbsys_e cbsys_id, int (*cb)(void *), void *cb_arg)
{
    cbsys->callback = cb;
    cbsys->arg = cb_arg;
    cbsys->next = pos_cbsys_first[cbsys_id];
1c009bba:	00259793          	slli	a5,a1,0x2
1c009bbe:	1c0015b7          	lui	a1,0x1c001
1c009bc2:	4b058593          	addi	a1,a1,1200 # 1c0014b0 <stack>
1c009bc6:	95be                	add	a1,a1,a5
1c009bc8:	419c                	lw	a5,0(a1)
    cbsys->callback = cb;
1c009bca:	c110                	sw	a2,0(a0)
    cbsys->arg = cb_arg;
1c009bcc:	c154                	sw	a3,4(a0)
    cbsys->next = pos_cbsys_first[cbsys_id];
1c009bce:	c51c                	sw	a5,8(a0)
    pos_cbsys_first[cbsys_id] = cbsys;
1c009bd0:	c188                	sw	a0,0(a1)
}
1c009bd2:	8082                	ret

1c009bd4 <pi_open_from_conf>:

#include "pmsis.h"

void pi_open_from_conf(struct pi_device *device, void *conf)
{
    device->config = conf;
1c009bd4:	c14c                	sw	a1,4(a0)
}
1c009bd6:	8082                	ret

1c009bd8 <pos_task_handle_blocking>:
        hal_irq_disable();

        task = pos_sched_first;

    }
}
1c009bd8:	4785                	li	a5,1
1c009bda:	00f50a23          	sb	a5,20(a0)
1c009bde:	8082                	ret

1c009be0 <pos_task_handle>:
1c009be0:	1141                	addi	sp,sp,-16
1c009be2:	c422                	sw	s0,8(sp)
1c009be4:	02000413          	li	s0,32
1c009be8:	401c                	lw	a5,0(s0)
1c009bea:	c606                	sw	ra,12(sp)
1c009bec:	c385                	beqz	a5,1c009c0c <pos_task_handle+0x2c>
1c009bee:	4394                	lw	a3,0(a5)
1c009bf0:	43d8                	lw	a4,4(a5)
1c009bf2:	c014                	sw	a3,0(s0)
1c009bf4:	4788                	lw	a0,8(a5)
1c009bf6:	300467f3          	csrrsi	a5,mstatus,8
1c009bfa:	9702                	jalr	a4
1c009bfc:	300477f3          	csrrci	a5,mstatus,8
1c009c00:	401c                	lw	a5,0(s0)
1c009c02:	f7f5                	bnez	a5,1c009bee <pos_task_handle+0xe>
1c009c04:	40b2                	lw	ra,12(sp)
1c009c06:	4422                	lw	s0,8(sp)
1c009c08:	0141                	addi	sp,sp,16
1c009c0a:	8082                	ret
1c009c0c:	10500073          	wfi
1c009c10:	300467f3          	csrrsi	a5,mstatus,8
1c009c14:	300477f3          	csrrci	a5,mstatus,8
1c009c18:	401c                	lw	a5,0(s0)
1c009c1a:	fbf1                	bnez	a5,1c009bee <pos_task_handle+0xe>
1c009c1c:	40b2                	lw	ra,12(sp)
1c009c1e:	4422                	lw	s0,8(sp)
1c009c20:	0141                	addi	sp,sp,16
1c009c22:	8082                	ret

1c009c24 <pos_sched_init>:

void pos_sched_init()
{
    pos_sched_first = NULL;
1c009c24:	02002023          	sw	zero,32(zero) # 20 <pos_sched_first>
1c009c28:	8082                	ret

1c009c2a <pos_alloc_init>:



void pos_alloc_init(pos_alloc_t *a, void *_chunk, int size)
{
    pos_alloc_chunk_t *chunk = (pos_alloc_chunk_t *)ALIGN_UP((int)_chunk, MIN_CHUNK_SIZE);
1c009c2a:	00758793          	addi	a5,a1,7
1c009c2e:	c407b7b3          	p.bclr	a5,a5,2,0
#ifdef ARCHI_MEMORY_POWER
    a->track_pwd = 0;
#endif
    a->first_free = chunk;
    size = size - ((int)chunk - (int)_chunk);
1c009c32:	40b785b3          	sub	a1,a5,a1
    a->first_free = chunk;
1c009c36:	c11c                	sw	a5,0(a0)
    size = size - ((int)chunk - (int)_chunk);
1c009c38:	8e0d                	sub	a2,a2,a1
    if (size > 0)
1c009c3a:	00c05763          	blez	a2,1c009c48 <pos_alloc_init+0x1e>
    {
        chunk->size = ALIGN_DOWN(size, MIN_CHUNK_SIZE);
1c009c3e:	c4063633          	p.bclr	a2,a2,2,0
1c009c42:	c390                	sw	a2,0(a5)
        chunk->next = NULL;
1c009c44:	0007a223          	sw	zero,4(a5)
    }
}
1c009c48:	8082                	ret

1c009c4a <pos_alloc>:

void *pos_alloc(pos_alloc_t *a, int size)
{
    ALLOC_TRACE(POS_LOG_TRACE, "Allocating memory chunk (alloc: %p, size: 0x%8x)\n", a, size);

    pos_alloc_chunk_t *pt = a->first_free, *prev = 0;
1c009c4a:	4110                	lw	a2,0(a0)

    size = ALIGN_UP(size, MIN_CHUNK_SIZE);
1c009c4c:	059d                	addi	a1,a1,7
1c009c4e:	c405b5b3          	p.bclr	a1,a1,2,0

    while (pt && (pt->size < size))
1c009c52:	ca31                	beqz	a2,1c009ca6 <pos_alloc+0x5c>
1c009c54:	4218                	lw	a4,0(a2)
1c009c56:	425c                	lw	a5,4(a2)
1c009c58:	02b75963          	ble	a1,a4,1c009c8a <pos_alloc+0x40>
1c009c5c:	cb81                	beqz	a5,1c009c6c <pos_alloc+0x22>
1c009c5e:	4398                	lw	a4,0(a5)
1c009c60:	43d4                	lw	a3,4(a5)
1c009c62:	00b75763          	ble	a1,a4,1c009c70 <pos_alloc+0x26>
1c009c66:	863e                	mv	a2,a5
1c009c68:	87b6                	mv	a5,a3
1c009c6a:	fbf5                	bnez	a5,1c009c5e <pos_alloc+0x14>
        ALLOC_TRACE(POS_LOG_TRACE, "Not enough memory to allocate\n");

        //rt_warning("Not enough memory to allocate\n");
        return NULL;
    }
}
1c009c6c:	853e                	mv	a0,a5
1c009c6e:	8082                	ret
        if (pt->size == size)
1c009c70:	00b70a63          	beq	a4,a1,1c009c84 <pos_alloc+0x3a>
            pos_alloc_chunk_t *new_pt = (pos_alloc_chunk_t *)((char *)pt + size);
1c009c74:	00b78533          	add	a0,a5,a1
            new_pt->size = pt->size - size;
1c009c78:	8f0d                	sub	a4,a4,a1
1c009c7a:	c118                	sw	a4,0(a0)
            new_pt->next = pt->next;
1c009c7c:	c154                	sw	a3,4(a0)
                prev->next = new_pt;
1c009c7e:	c248                	sw	a0,4(a2)
}
1c009c80:	853e                	mv	a0,a5
1c009c82:	8082                	ret
                prev->next = pt->next;
1c009c84:	c254                	sw	a3,4(a2)
}
1c009c86:	853e                	mv	a0,a5
1c009c88:	8082                	ret
        if (pt->size == size)
1c009c8a:	00e58b63          	beq	a1,a4,1c009ca0 <pos_alloc+0x56>
            pos_alloc_chunk_t *new_pt = (pos_alloc_chunk_t *)((char *)pt + size);
1c009c8e:	00b606b3          	add	a3,a2,a1
            new_pt->size = pt->size - size;
1c009c92:	8f0d                	sub	a4,a4,a1
            new_pt->next = pt->next;
1c009c94:	c2dc                	sw	a5,4(a3)
            new_pt->size = pt->size - size;
1c009c96:	c298                	sw	a4,0(a3)
                a->first_free = new_pt;
1c009c98:	87b2                	mv	a5,a2
1c009c9a:	c114                	sw	a3,0(a0)
}
1c009c9c:	853e                	mv	a0,a5
1c009c9e:	8082                	ret
                a->first_free = pt->next;
1c009ca0:	c11c                	sw	a5,0(a0)
1c009ca2:	87b2                	mv	a5,a2
1c009ca4:	b7e1                	j	1c009c6c <pos_alloc+0x22>
        return NULL;
1c009ca6:	4781                	li	a5,0
1c009ca8:	b7d1                	j	1c009c6c <pos_alloc+0x22>

1c009caa <pos_free>:
void __attribute__((noinline)) pos_free(pos_alloc_t *a, void *_chunk, int size)
{
    ALLOC_TRACE(POS_LOG_TRACE, "Freeing memory chunk (alloc: %p, base: %p, size: 0x%8x)\n", a, _chunk, size);

    pos_alloc_chunk_t *chunk = (pos_alloc_chunk_t *)_chunk;
    pos_alloc_chunk_t *next = a->first_free, *prev = 0, *new;
1c009caa:	4118                	lw	a4,0(a0)
    size = ALIGN_UP(size, MIN_CHUNK_SIZE);
1c009cac:	061d                	addi	a2,a2,7
1c009cae:	c4063633          	p.bclr	a2,a2,2,0

    while (next && next < chunk)
1c009cb2:	c729                	beqz	a4,1c009cfc <pos_free+0x52>
1c009cb4:	00b76663          	bltu	a4,a1,1c009cc0 <pos_free+0x16>
1c009cb8:	a0a1                	j	1c009d00 <pos_free+0x56>
1c009cba:	00b7f563          	bleu	a1,a5,1c009cc4 <pos_free+0x1a>
1c009cbe:	873e                	mv	a4,a5
    {
        prev = next; next = next->next;
1c009cc0:	435c                	lw	a5,4(a4)
    while (next && next < chunk)
1c009cc2:	ffe5                	bnez	a5,1c009cba <pos_free+0x10>
    }

    if (((char *)chunk + size) == (char *)next)
1c009cc4:	00c586b3          	add	a3,a1,a2
1c009cc8:	02d78463          	beq	a5,a3,1c009cf0 <pos_free+0x46>
        // stand in the one being freed.
        pos_alloc_account_free(a, next, sizeof(pos_alloc_chunk_t));
    }
    else
    {
        chunk->size = size;
1c009ccc:	c190                	sw	a2,0(a1)
        chunk->next = next;
1c009cce:	c1dc                	sw	a5,4(a1)
    }

    if (prev)
1c009cd0:	cf11                	beqz	a4,1c009cec <pos_free+0x42>
    {
        if (((char *)prev + prev->size) == (char *)chunk)
1c009cd2:	431c                	lw	a5,0(a4)
1c009cd4:	00f706b3          	add	a3,a4,a5
1c009cd8:	00d58463          	beq	a1,a3,1c009ce0 <pos_free+0x36>
            // The metadata will stand in the previous chunk, we can account the whole chunk
            pos_alloc_account_free(a, _chunk, size);
        }
        else
        {
            prev->next = chunk;
1c009cdc:	c34c                	sw	a1,4(a4)
1c009cde:	8082                	ret
            prev->size += chunk->size;
1c009ce0:	4194                	lw	a3,0(a1)
            prev->next = chunk->next;
1c009ce2:	41d0                	lw	a2,4(a1)
            prev->size += chunk->size;
1c009ce4:	97b6                	add	a5,a5,a3
1c009ce6:	c31c                	sw	a5,0(a4)
            prev->next = chunk->next;
1c009ce8:	c350                	sw	a2,4(a4)
1c009cea:	8082                	ret
            pos_alloc_account_free(a, (void *)(((uint32_t)_chunk) + sizeof(pos_alloc_chunk_t)), size - sizeof(pos_alloc_chunk_t));
        }
    }
    else
    {
        a->first_free = chunk;
1c009cec:	c10c                	sw	a1,0(a0)
        // The metadata will stand in this block, we can account ony after the metadata
        pos_alloc_account_free(a, (void *)(((uint32_t)_chunk) + sizeof(pos_alloc_chunk_t)), size - sizeof(pos_alloc_chunk_t));
    }
}
1c009cee:	8082                	ret
        chunk->size = size + next->size;
1c009cf0:	4394                	lw	a3,0(a5)
        chunk->next = next->next;
1c009cf2:	43dc                	lw	a5,4(a5)
        chunk->size = size + next->size;
1c009cf4:	9636                	add	a2,a2,a3
1c009cf6:	c190                	sw	a2,0(a1)
        chunk->next = next->next;
1c009cf8:	c1dc                	sw	a5,4(a1)
1c009cfa:	bfd9                	j	1c009cd0 <pos_free+0x26>
    while (next && next < chunk)
1c009cfc:	4781                	li	a5,0
1c009cfe:	b7d9                	j	1c009cc4 <pos_free+0x1a>
1c009d00:	87ba                	mv	a5,a4
    pos_alloc_chunk_t *next = a->first_free, *prev = 0, *new;
1c009d02:	4701                	li	a4,0
1c009d04:	b7c1                	j	1c009cc4 <pos_free+0x1a>

1c009d06 <pos_alloc_init_l1>:
  req->chunk = chunk;
  req->cid = hal_cluster_id();
  req->done = 0;
  pos_task_init_from_cluster(&req->task);
  pi_task_callback(&req->task, pos_free_cluster_req, (void* )req);
  pos_cluster_push_fc_event(&req->task);
1c009d06:	1c0017b7          	lui	a5,0x1c001
1c009d0a:	4f47a703          	lw	a4,1268(a5) # 1c0014f4 <pos_alloc_l1>
1c009d0e:	100007b7          	lui	a5,0x10000
1c009d12:	01751593          	slli	a1,a0,0x17
1c009d16:	6641                	lui	a2,0x10
1c009d18:	050a                	slli	a0,a0,0x2
1c009d1a:	12478793          	addi	a5,a5,292 # 10000124 <__l1_end>
1c009d1e:	edc60613          	addi	a2,a2,-292 # fedc <__l1_heap_size>
1c009d22:	95be                	add	a1,a1,a5
1c009d24:	953a                	add	a0,a0,a4
1c009d26:	b711                	j	1c009c2a <pos_alloc_init>

1c009d28 <pos_allocs_init>:
1c009d28:	1141                	addi	sp,sp,-16
1c009d2a:	1c0015b7          	lui	a1,0x1c001
1c009d2e:	c606                	sw	ra,12(sp)
1c009d30:	c422                	sw	s0,8(sp)
1c009d32:	52058793          	addi	a5,a1,1312 # 1c001520 <__l2_priv0_end>
1c009d36:	1c008637          	lui	a2,0x1c008
1c009d3a:	04c7c363          	blt	a5,a2,1c009d80 <pos_allocs_init+0x58>
1c009d3e:	4581                	li	a1,0
1c009d40:	4601                	li	a2,0
1c009d42:	1c001437          	lui	s0,0x1c001
1c009d46:	4f840513          	addi	a0,s0,1272 # 1c0014f8 <pos_alloc_l2>
1c009d4a:	35c5                	jal	1c009c2a <pos_alloc_init>
1c009d4c:	1c0105b7          	lui	a1,0x1c010
1c009d50:	2a858793          	addi	a5,a1,680 # 1c0102a8 <__l2_shared_end>
1c009d54:	1c080637          	lui	a2,0x1c080
1c009d58:	1c001537          	lui	a0,0x1c001
1c009d5c:	8e1d                	sub	a2,a2,a5
1c009d5e:	2a858593          	addi	a1,a1,680
1c009d62:	4fc50513          	addi	a0,a0,1276 # 1c0014fc <pos_alloc_l2+0x4>
1c009d66:	35d1                	jal	1c009c2a <pos_alloc_init>
1c009d68:	4f840513          	addi	a0,s0,1272
1c009d6c:	4591                	li	a1,4
1c009d6e:	3df1                	jal	1c009c4a <pos_alloc>
1c009d70:	40b2                	lw	ra,12(sp)
1c009d72:	4422                	lw	s0,8(sp)
1c009d74:	1c0017b7          	lui	a5,0x1c001
1c009d78:	4ea7aa23          	sw	a0,1268(a5) # 1c0014f4 <pos_alloc_l1>
1c009d7c:	0141                	addi	sp,sp,16
1c009d7e:	8082                	ret
1c009d80:	8e1d                	sub	a2,a2,a5
1c009d82:	52058593          	addi	a1,a1,1312
1c009d86:	bf75                	j	1c009d42 <pos_allocs_init+0x1a>

1c009d88 <pi_cl_l1_malloc>:
  pos_free_cluster(1, chunk, size, req);
}


void *pi_cl_l1_malloc(struct pi_device *device, uint32_t size)
{
1c009d88:	4781                	li	a5,0
  int cid = 0;
  if (device)
1c009d8a:	c509                	beqz	a0,1c009d94 <pi_cl_l1_malloc+0xc>
  {
    pos_cluster_t *data = (pos_cluster_t *)device->data;
    cid = data->cid;
1c009d8c:	451c                	lw	a5,8(a0)
1c009d8e:	01c7c783          	lbu	a5,28(a5)
1c009d92:	078a                	slli	a5,a5,0x2
  }
  return pos_alloc(&pos_alloc_l1[cid], size);
1c009d94:	1c001737          	lui	a4,0x1c001
1c009d98:	4f472503          	lw	a0,1268(a4) # 1c0014f4 <pos_alloc_l1>
1c009d9c:	953e                	add	a0,a0,a5
1c009d9e:	b575                	j	1c009c4a <pos_alloc>

1c009da0 <pi_cl_l1_free>:
}

void pi_cl_l1_free(struct pi_device *device, void *_chunk, int size)
{
1c009da0:	4781                	li	a5,0
  int cid = 0;
  if (device)
1c009da2:	c509                	beqz	a0,1c009dac <pi_cl_l1_free+0xc>
  {
    pos_cluster_t *data = (pos_cluster_t *)device->data;
    cid = data->cid;
1c009da4:	451c                	lw	a5,8(a0)
1c009da6:	01c7c783          	lbu	a5,28(a5)
1c009daa:	078a                	slli	a5,a5,0x2
  }
  return pos_free(&pos_alloc_l1[cid], _chunk, size);
1c009dac:	1c001737          	lui	a4,0x1c001
1c009db0:	4f472503          	lw	a0,1268(a4) # 1c0014f4 <pos_alloc_l1>
1c009db4:	953e                	add	a0,a0,a5
1c009db6:	bdd5                	j	1c009caa <pos_free>

1c009db8 <pos_irq_set_handler>:

void pos_irq_illegal_instr()
{
  //unsigned int mepc = hal_mepc_read();
  //rt_warning("Reached illegal instruction (PC: 0x%x, opcode: 0x%x\n", mepc, *(int *)mepc);
}
1c009db8:	f14027f3          	csrr	a5,mhartid
1c009dbc:	477d                	li	a4,31
1c009dbe:	ca5797b3          	p.extractu	a5,a5,5,5
1c009dc2:	02e78d63          	beq	a5,a4,1c009dfc <pos_irq_set_handler+0x44>
1c009dc6:	002007b7          	lui	a5,0x200
1c009dca:	43b8                	lw	a4,64(a5)
1c009dcc:	050a                	slli	a0,a0,0x2
1c009dce:	8d89                	sub	a1,a1,a0
1c009dd0:	8d99                	sub	a1,a1,a4
1c009dd2:	c14586b3          	p.extract	a3,a1,0,20
1c009dd6:	06f00793          	li	a5,111
1c009dda:	c1f6a7b3          	p.insert	a5,a3,0,31
1c009dde:	d21586b3          	p.extract	a3,a1,9,1
1c009de2:	d356a7b3          	p.insert	a5,a3,9,21
1c009de6:	c0b586b3          	p.extract	a3,a1,0,11
1c009dea:	c146a7b3          	p.insert	a5,a3,0,20
1c009dee:	cec585b3          	p.extract	a1,a1,7,12
1c009df2:	cec5a7b3          	p.insert	a5,a1,7,12
1c009df6:	00f56723          	p.sw	a5,a4(a0)
1c009dfa:	8082                	ret
1c009dfc:	30502773          	csrr	a4,mtvec
1c009e00:	c0073733          	p.bclr	a4,a4,0,0
1c009e04:	b7e1                	j	1c009dcc <pos_irq_set_handler+0x14>

1c009e06 <pos_irq_init>:
  return __builtin_pulp_ClusterId();
1c009e06:	f1402773          	csrr	a4,mhartid
static inline void hal_itc_enable_set(unsigned int mask) {
  pulp_write32(ARCHI_FC_ITC_ADDR + ITC_MASK_SET_OFFSET, mask);
}

static inline void hal_itc_enable_clr(unsigned int mask) {
  pulp_write32(ARCHI_FC_ITC_ADDR + ITC_MASK_CLR_OFFSET, mask);
1c009e0a:	1a10a7b7          	lui	a5,0x1a10a
1c009e0e:	56fd                	li	a3,-1
1c009e10:	80d7a423          	sw	a3,-2040(a5) # 1a109808 <__l1_end+0xa1096e4>
1c009e14:	ca571733          	p.extractu	a4,a4,5,5

extern unsigned char __irq_vector_base;

static inline uint32_t pos_irq_vector_base()
{
    return (uint32_t)&__irq_vector_base;
1c009e18:	1c0087b7          	lui	a5,0x1c008



static inline void pos_irq_set_fc_vector_base(unsigned int base)
{
    if (hal_is_fc())
1c009e1c:	46fd                	li	a3,31
1c009e1e:	00078793          	mv	a5,a5
1c009e22:	00d70663          	beq	a4,a3,1c009e2e <pos_irq_init+0x28>
static inline void plp_ctrl_fetchen(unsigned int mask) {
  plp_ctrl_fetchen_base(ARCHI_CLUSTER_ADDR, mask);
}

static inline void plp_ctrl_bootaddr_set(unsigned int bootAddr) {
  pulp_write32(ARCHI_CLUSTER_CTRL_ADDR + 0x40, bootAddr);
1c009e26:	00200737          	lui	a4,0x200
1c009e2a:	c33c                	sw	a5,64(a4)
    pos_irq_mask_clr(-1);

    // As the FC code may not be at the beginning of the L2, set the
    // vector base to get proper interrupt handlers
    pos_irq_set_fc_vector_base(pos_irq_vector_base());
}
1c009e2c:	8082                	ret
#if defined(__RISCV_GENERIC__)
        hal_spr_write(0x305, base);
#elif defined(ARCHI_CORE_HAS_SECURITY) && !defined(ARCHI_CORE_HAS_1_10)
        __builtin_pulp_spr_write(SR_MTVEC, base);
#elif defined(ARCHI_CORE_HAS_1_10)
        __builtin_pulp_spr_write(SR_MTVEC, base | 1);
1c009e2e:	c007c7b3          	p.bset	a5,a5,0,0
1c009e32:	30579073          	csrw	mtvec,a5
1c009e36:	8082                	ret

1c009e38 <pos_soc_event_init>:
  return ARCHI_SOC_EU_ADDR;
}


static inline void soc_eu_eventMask_set(unsigned int reg, unsigned int value) {
  pulp_write32(ARCHI_SOC_EU_ADDR + reg, value);
1c009e38:	1a1067b7          	lui	a5,0x1a106
volatile PI_FC_TINY unsigned int pos_soc_event_status[ARCHI_SOC_EVENT_NB_TOTAL/32];

extern void POS_HANDLER pos_soc_event_handler_asm();

void pos_soc_event_init()
{
1c009e3c:	1141                	addi	sp,sp,-16
1c009e3e:	c606                	sw	ra,12(sp)
1c009e40:	577d                	li	a4,-1
1c009e42:	00478693          	addi	a3,a5,4 # 1a106004 <__l1_end+0xa105ee0>
1c009e46:	c298                	sw	a4,0(a3)
1c009e48:	00878693          	addi	a3,a5,8
1c009e4c:	c298                	sw	a4,0(a3)
1c009e4e:	00c78693          	addi	a3,a5,12
1c009e52:	c298                	sw	a4,0(a3)
1c009e54:	01078693          	addi	a3,a5,16
1c009e58:	c298                	sw	a4,0(a3)
1c009e5a:	01478693          	addi	a3,a5,20
1c009e5e:	c298                	sw	a4,0(a3)
1c009e60:	01878693          	addi	a3,a5,24
1c009e64:	c298                	sw	a4,0(a3)
1c009e66:	01c78693          	addi	a3,a5,28
1c009e6a:	c298                	sw	a4,0(a3)
1c009e6c:	02078793          	addi	a5,a5,32
    soc_eu_eventMask_reset(SOC_FC_FIRST_MASK);
#endif

#if defined(ARCHI_HAS_FC)
    // Activate soc events handler
    pos_irq_set_handler(ARCHI_FC_EVT_SOC_EVT, pos_soc_event_handler_asm);
1c009e70:	1c00a5b7          	lui	a1,0x1c00a
1c009e74:	c398                	sw	a4,0(a5)
1c009e76:	4b658593          	addi	a1,a1,1206 # 1c00a4b6 <pos_soc_event_handler_asm>
1c009e7a:	4569                	li	a0,26
1c009e7c:	3f35                	jal	1c009db8 <pos_irq_set_handler>
    pos_irq_mask_set(1<<ARCHI_FC_EVT_SOC_EVT);
#endif
1c009e7e:	40b2                	lw	ra,12(sp)
  pulp_write32(ARCHI_FC_ITC_ADDR + ITC_MASK_SET_OFFSET, mask);
1c009e80:	1a10a7b7          	lui	a5,0x1a10a
1c009e84:	04000737          	lui	a4,0x4000
1c009e88:	80e7a223          	sw	a4,-2044(a5) # 1a109804 <__l1_end+0xa1096e0>
1c009e8c:	0141                	addi	sp,sp,16
1c009e8e:	8082                	ret

1c009e90 <pos_time_poweroff>:
    pi_task_wait_on(&task);
}

void pi_time_wait_us(int time_us)
{
    pos_time_wait_us(time_us);
1c009e90:	1a10b7b7          	lui	a5,0x1a10b
1c009e94:	0791                	addi	a5,a5,4
1c009e96:	0087a783          	lw	a5,8(a5) # 1a10b008 <__l1_end+0xa10aee4>
1c009e9a:	1c001737          	lui	a4,0x1c001
1c009e9e:	4cf72423          	sw	a5,1224(a4) # 1c0014c8 <pos_time_timer_count>
1c009ea2:	4501                	li	a0,0
1c009ea4:	8082                	ret

1c009ea6 <pos_time_poweron>:
1c009ea6:	1c0017b7          	lui	a5,0x1c001
1c009eaa:	4c87a703          	lw	a4,1224(a5) # 1c0014c8 <pos_time_timer_count>
1c009eae:	1a10b7b7          	lui	a5,0x1a10b
1c009eb2:	0791                	addi	a5,a5,4
1c009eb4:	00e7a423          	sw	a4,8(a5) # 1a10b008 <__l1_end+0xa10aee4>
1c009eb8:	4501                	li	a0,0
1c009eba:	8082                	ret

1c009ebc <pos_time_timer_handler>:
1c009ebc:	1c0018b7          	lui	a7,0x1c001
1c009ec0:	4c888893          	addi	a7,a7,1224 # 1c0014c8 <pos_time_timer_count>
1c009ec4:	0048a783          	lw	a5,4(a7)
1c009ec8:	1a10b637          	lui	a2,0x1a10b
1c009ecc:	0611                	addi	a2,a2,4
1c009ece:	00862603          	lw	a2,8(a2) # 1a10b008 <__l1_end+0xa10aee4>
1c009ed2:	cba9                	beqz	a5,1c009f24 <pos_time_timer_handler+0x68>
1c009ed4:	5fd8                	lw	a4,60(a5)
1c009ed6:	800005b7          	lui	a1,0x80000
1c009eda:	40e60733          	sub	a4,a2,a4
1c009ede:	ffe5c593          	xori	a1,a1,-2
1c009ee2:	0ae5e763          	bltu	a1,a4,1c009f90 <pos_time_timer_handler+0xd4>
1c009ee6:	02002803          	lw	a6,32(zero) # 20 <pos_sched_first>
1c009eea:	02402503          	lw	a0,36(zero) # 24 <pos_sched_last>
1c009eee:	4398                	lw	a4,0(a5)
1c009ef0:	0007a023          	sw	zero,0(a5)
1c009ef4:	4301                	li	t1,0
1c009ef6:	02080063          	beqz	a6,1c009f16 <pos_time_timer_handler+0x5a>
1c009efa:	c11c                	sw	a5,0(a0)
1c009efc:	c305                	beqz	a4,1c009f1c <pos_time_timer_handler+0x60>
1c009efe:	5f54                	lw	a3,60(a4)
1c009f00:	853e                	mv	a0,a5
1c009f02:	40d606b3          	sub	a3,a2,a3
1c009f06:	04d5e763          	bltu	a1,a3,1c009f54 <pos_time_timer_handler+0x98>
1c009f0a:	87ba                	mv	a5,a4
1c009f0c:	4398                	lw	a4,0(a5)
1c009f0e:	0007a023          	sw	zero,0(a5)
1c009f12:	fe0814e3          	bnez	a6,1c009efa <pos_time_timer_handler+0x3e>
1c009f16:	883e                	mv	a6,a5
1c009f18:	4305                	li	t1,1
1c009f1a:	f375                	bnez	a4,1c009efe <pos_time_timer_handler+0x42>
1c009f1c:	06031c63          	bnez	t1,1c009f94 <pos_time_timer_handler+0xd8>
1c009f20:	02f02223          	sw	a5,36(zero) # 24 <pos_sched_last>
1c009f24:	1a10b7b7          	lui	a5,0x1a10b
1c009f28:	08100713          	li	a4,129
1c009f2c:	0791                	addi	a5,a5,4
1c009f2e:	0008a223          	sw	zero,4(a7)
1c009f32:	00e7a023          	sw	a4,0(a5) # 1a10b000 <__l1_end+0xa10aedc>
1c009f36:	f14027f3          	csrr	a5,mhartid
1c009f3a:	477d                	li	a4,31
1c009f3c:	ca5797b3          	p.extractu	a5,a5,5,5
1c009f40:	04e78063          	beq	a5,a4,1c009f80 <pos_time_timer_handler+0xc4>
1c009f44:	6785                	lui	a5,0x1
1c009f46:	80078793          	addi	a5,a5,-2048 # 800 <pos_soc_event_callback+0x3b8>
1c009f4a:	00204737          	lui	a4,0x204
1c009f4e:	02f72423          	sw	a5,40(a4) # 204028 <__l1_heap_size+0x1f414c>
1c009f52:	8082                	ret
1c009f54:	04031363          	bnez	t1,1c009f9a <pos_time_timer_handler+0xde>
1c009f58:	02f02223          	sw	a5,36(zero) # 24 <pos_sched_last>
1c009f5c:	1a10b7b7          	lui	a5,0x1a10b
1c009f60:	0791                	addi	a5,a5,4
1c009f62:	00e8a223          	sw	a4,4(a7)
1c009f66:	0087a683          	lw	a3,8(a5) # 1a10b008 <__l1_end+0xa10aee4>
1c009f6a:	5f58                	lw	a4,60(a4)
1c009f6c:	40c70633          	sub	a2,a4,a2
1c009f70:	9636                	add	a2,a2,a3
1c009f72:	00c7a823          	sw	a2,16(a5)
1c009f76:	08500713          	li	a4,133
1c009f7a:	00e7a023          	sw	a4,0(a5)
1c009f7e:	8082                	ret
1c009f80:	6785                	lui	a5,0x1
1c009f82:	1a10a737          	lui	a4,0x1a10a
1c009f86:	80078793          	addi	a5,a5,-2048 # 800 <pos_soc_event_callback+0x3b8>
1c009f8a:	80f72a23          	sw	a5,-2028(a4) # 1a109814 <__l1_end+0xa1096f0>
1c009f8e:	8082                	ret
1c009f90:	873e                	mv	a4,a5
1c009f92:	b7e9                	j	1c009f5c <pos_time_timer_handler+0xa0>
1c009f94:	03002023          	sw	a6,32(zero) # 20 <pos_sched_first>
1c009f98:	b761                	j	1c009f20 <pos_time_timer_handler+0x64>
1c009f9a:	03002023          	sw	a6,32(zero) # 20 <pos_sched_first>
1c009f9e:	bf6d                	j	1c009f58 <pos_time_timer_handler+0x9c>

1c009fa0 <pos_time_init>:
}

void __attribute__((constructor)) pos_time_init()
{
1c009fa0:	1141                	addi	sp,sp,-16
1c009fa2:	c422                	sw	s0,8(sp)
//

#ifndef LANGUAGE_ASSEMBLY

static inline uint32_t timer_cfg_lo_get(uint32_t base) { return ARCHI_READ(base, TIMER_CFG_LO_OFFSET); }
static inline void timer_cfg_lo_set(uint32_t base, uint32_t value) { ARCHI_WRITE(base, TIMER_CFG_LO_OFFSET, value); }
1c009fa4:	1a10b7b7          	lui	a5,0x1a10b
    pos_time_first_delayed = NULL;
1c009fa8:	1c001437          	lui	s0,0x1c001
{
1c009fac:	c606                	sw	ra,12(sp)
    pos_time_first_delayed = NULL;
1c009fae:	4c840413          	addi	s0,s0,1224 # 1c0014c8 <pos_time_timer_count>
1c009fb2:	08300713          	li	a4,131
1c009fb6:	0791                	addi	a5,a5,4
1c009fb8:	00042223          	sw	zero,4(s0)
1c009fbc:	00e7a023          	sw	a4,0(a5) # 1a10b000 <__l1_end+0xa10aedc>
                   TIMER_CFG_LO_ENABLE(1) |
                       TIMER_CFG_LO_RESET(1) |
                       TIMER_CFG_LO_CCFG(1));

#if defined(ARCHI_HAS_FC)
    pos_irq_set_handler(ARCHI_FC_EVT_TIMER0_HI, pos_time_timer_handler_asm);
1c009fc0:	1c00a5b7          	lui	a1,0x1c00a
1c009fc4:	49258593          	addi	a1,a1,1170 # 1c00a492 <pos_time_timer_handler_asm>
1c009fc8:	452d                	li	a0,11
1c009fca:	33fd                	jal	1c009db8 <pos_irq_set_handler>
1c009fcc:	6785                	lui	a5,0x1
1c009fce:	1a10a737          	lui	a4,0x1a10a
1c009fd2:	80078793          	addi	a5,a5,-2048 # 800 <pos_soc_event_callback+0x3b8>
#else
    pos_irq_set_handler(ARCHI_EVT_TIMER0_HI, pos_time_timer_handler_asm);
    pos_irq_mask_set(1 << ARCHI_EVT_TIMER0_HI);
#endif

    pos_cbsys_add(&pos_time_cbsys_poweroff, POS_CBSYS_POWEROFF, pos_time_poweroff, NULL);
1c009fd6:	1c00a637          	lui	a2,0x1c00a
1c009fda:	00840513          	addi	a0,s0,8
1c009fde:	4681                	li	a3,0
1c009fe0:	e9060613          	addi	a2,a2,-368 # 1c009e90 <pos_time_poweroff>
1c009fe4:	4589                	li	a1,2
1c009fe6:	80f72223          	sw	a5,-2044(a4) # 1a109804 <__l1_end+0xa1096e0>
1c009fea:	3ec1                	jal	1c009bba <pos_cbsys_add>
    pos_cbsys_add(&pos_time_cbsys_poweron, POS_CBSYS_POWERON, pos_time_poweron, NULL);
1c009fec:	01840513          	addi	a0,s0,24
}
1c009ff0:	4422                	lw	s0,8(sp)
1c009ff2:	40b2                	lw	ra,12(sp)
    pos_cbsys_add(&pos_time_cbsys_poweron, POS_CBSYS_POWERON, pos_time_poweron, NULL);
1c009ff4:	1c00a637          	lui	a2,0x1c00a
1c009ff8:	4681                	li	a3,0
1c009ffa:	ea660613          	addi	a2,a2,-346 # 1c009ea6 <pos_time_poweron>
1c009ffe:	458d                	li	a1,3
}
1c00a000:	0141                	addi	sp,sp,16
    pos_cbsys_add(&pos_time_cbsys_poweron, POS_CBSYS_POWERON, pos_time_poweron, NULL);
1c00a002:	be65                	j	1c009bba <pos_cbsys_add>

1c00a004 <pos_uart_init>:
    //err |= pos_cbsys_add(RT_CBSYS_PERIPH_SETFREQ_AFTER, pos_uart_setfreq_after, NULL);


    for (int i=0; i<ARCHI_UDMA_NB_UART; i++)
    {
        pos_uart[i].open_count = 0;
1c00a004:	1c0107b7          	lui	a5,0x1c010
1c00a008:	1407a823          	sw	zero,336(a5) # 1c010150 <__cluster_text_end>
    }

    //if (err) pos_fatal("Unable to initialize uart driver\n");
}
1c00a00c:	8082                	ret

1c00a00e <pi_cluster_conf_init>:
    eu_evt_trig(data->task_trig_addr, 0);

    hal_irq_restore(irq);

    return 0;
}
1c00a00e:	00052223          	sw	zero,4(a0)
1c00a012:	00052a23          	sw	zero,20(a0)
1c00a016:	8082                	ret

1c00a018 <pi_cluster_open>:
1c00a018:	7179                	addi	sp,sp,-48
1c00a01a:	c85a                	sw	s6,16(sp)
1c00a01c:	00452b03          	lw	s6,4(a0)
1c00a020:	ca56                	sw	s5,20(sp)
1c00a022:	004b2a83          	lw	s5,4(s6)
1c00a026:	1c0017b7          	lui	a5,0x1c001
1c00a02a:	d422                	sw	s0,40(sp)
1c00a02c:	c462                	sw	s8,8(sp)
1c00a02e:	50078413          	addi	s0,a5,1280 # 1c001500 <pos_cluster>
1c00a032:	005a9c13          	slli	s8,s5,0x5
1c00a036:	d606                	sw	ra,44(sp)
1c00a038:	d226                	sw	s1,36(sp)
1c00a03a:	d04a                	sw	s2,32(sp)
1c00a03c:	ce4e                	sw	s3,28(sp)
1c00a03e:	cc52                	sw	s4,24(sp)
1c00a040:	c65e                	sw	s7,12(sp)
1c00a042:	018404b3          	add	s1,s0,s8
1c00a046:	c504                	sw	s1,8(a0)
1c00a048:	1c00a5b7          	lui	a1,0x1c00a
1c00a04c:	0ffafb93          	andi	s7,s5,255
1c00a050:	40258593          	addi	a1,a1,1026 # 1c00a402 <pos_task_remote_enqueue>
1c00a054:	4505                	li	a0,1
1c00a056:	01748e23          	sb	s7,28(s1)
1c00a05a:	3bb9                	jal	1c009db8 <pos_irq_set_handler>
1c00a05c:	020a8793          	addi	a5,s5,32
1c00a060:	1a10a737          	lui	a4,0x1a10a
1c00a064:	01779993          	slli	s3,a5,0x17
1c00a068:	00400913          	li	s2,4
1c00a06c:	4789                	li	a5,2
1c00a06e:	80f72223          	sw	a5,-2044(a4) # 1a109804 <__l1_end+0xa1096e0>
1c00a072:	e6c93933          	p.bclr	s2,s2,19,12
1c00a076:	0004a023          	sw	zero,0(s1)
1c00a07a:	994e                	add	s2,s2,s3
1c00a07c:	10000a37          	lui	s4,0x10000
1c00a080:	00092023          	sw	zero,0(s2)
1c00a084:	11ca0a13          	addi	s4,s4,284 # 1000011c <pos_cluster_fc_task_lock>
1c00a088:	4509                	li	a0,2
1c00a08a:	00092623          	sw	zero,12(s2)
1c00a08e:	00092223          	sw	zero,4(s2)
1c00a092:	000a2023          	sw	zero,0(s4)
1c00a096:	931fe0ef          	jal	ra,1c0089c6 <pos_fll_init>
1c00a09a:	01400793          	li	a5,20
1c00a09e:	478c                	lw	a1,8(a5)
1c00a0a0:	e9f1                	bnez	a1,1c00a174 <pi_cluster_open+0x15c>
1c00a0a2:	c788                	sw	a0,8(a5)
1c00a0a4:	002004b7          	lui	s1,0x200
1c00a0a8:	94ce                	add	s1,s1,s3
1c00a0aa:	4785                	li	a5,1
1c00a0ac:	02f4a023          	sw	a5,32(s1) # 200020 <__l1_heap_size+0x1f0144>
1c00a0b0:	00400693          	li	a3,4
1c00a0b4:	e6c6b6b3          	p.bclr	a3,a3,19,12
1c00a0b8:	12000793          	li	a5,288
1c00a0bc:	96ce                	add	a3,a3,s3
1c00a0be:	02f05563          	blez	a5,1c00a0e8 <pi_cluster_open+0xd0>
1c00a0c2:	17fd                	addi	a5,a5,-1
1c00a0c4:	1c010737          	lui	a4,0x1c010
1c00a0c8:	18870713          	addi	a4,a4,392 # 1c010188 <_l1_preload_start_inL2>
1c00a0cc:	8389                	srli	a5,a5,0x2
1c00a0ce:	11c00613          	li	a2,284
1c00a0d2:	55f5                	li	a1,-3
1c00a0d4:	8e99                	sub	a3,a3,a4
1c00a0d6:	0785                	addi	a5,a5,1
1c00a0d8:	0ab64263          	blt	a2,a1,1c00a17c <pi_cluster_open+0x164>
1c00a0dc:	0057c0fb          	lp.setup	x1,a5,1c00a0e6 <pi_cluster_open+0xce>
1c00a0e0:	4310                	lw	a2,0(a4)
1c00a0e2:	00c766a3          	p.sw	a2,a3(a4)
1c00a0e6:	0711                	addi	a4,a4,4
1c00a0e8:	018407b3          	add	a5,s0,s8
1c00a0ec:	01778e23          	sb	s7,28(a5)
1c00a0f0:	00201437          	lui	s0,0x201
1c00a0f4:	014b4683          	lbu	a3,20(s6)
1c00a0f8:	e0440713          	addi	a4,s0,-508 # 200e04 <__l1_heap_size+0x1f0f28>
1c00a0fc:	974e                	add	a4,a4,s3
1c00a0fe:	cf98                	sw	a4,24(a5)
1c00a100:	cb98                	sw	a4,16(a5)
1c00a102:	0127a223          	sw	s2,4(a5)
1c00a106:	00d78ea3          	sb	a3,29(a5)
1c00a10a:	8556                	mv	a0,s5
1c00a10c:	0007a423          	sw	zero,8(a5)
1c00a110:	0007aa23          	sw	zero,20(a5)
1c00a114:	00078f23          	sb	zero,30(a5)
1c00a118:	00da0223          	sb	a3,4(s4)
1c00a11c:	36ed                	jal	1c009d06 <pos_alloc_init_l1>
1c00a11e:	40040793          	addi	a5,s0,1024
1c00a122:	97ce                	add	a5,a5,s3
1c00a124:	577d                	li	a4,-1
1c00a126:	00e7a023          	sw	a4,0(a5)
1c00a12a:	1c0087b7          	lui	a5,0x1c008
1c00a12e:	08078793          	addi	a5,a5,128 # 1c008080 <_start>
1c00a132:	04f4a023          	sw	a5,64(s1)
1c00a136:	04f4a223          	sw	a5,68(s1)
1c00a13a:	04f4a423          	sw	a5,72(s1)
1c00a13e:	04f4a623          	sw	a5,76(s1)
1c00a142:	04f4a823          	sw	a5,80(s1)
1c00a146:	04f4aa23          	sw	a5,84(s1)
1c00a14a:	04f4ac23          	sw	a5,88(s1)
1c00a14e:	04f4ae23          	sw	a5,92(s1)
1c00a152:	0ff00793          	li	a5,255
1c00a156:	00f4a423          	sw	a5,8(s1)
1c00a15a:	50b2                	lw	ra,44(sp)
1c00a15c:	5422                	lw	s0,40(sp)
1c00a15e:	5492                	lw	s1,36(sp)
1c00a160:	5902                	lw	s2,32(sp)
1c00a162:	49f2                	lw	s3,28(sp)
1c00a164:	4a62                	lw	s4,24(sp)
1c00a166:	4ad2                	lw	s5,20(sp)
1c00a168:	4b42                	lw	s6,16(sp)
1c00a16a:	4bb2                	lw	s7,12(sp)
1c00a16c:	4c22                	lw	s8,8(sp)
1c00a16e:	4501                	li	a0,0
1c00a170:	6145                	addi	sp,sp,48
1c00a172:	8082                	ret
1c00a174:	4509                	li	a0,2
1c00a176:	ff6fe0ef          	jal	ra,1c00896c <pos_fll_set_freq>
1c00a17a:	b72d                	j	1c00a0a4 <pi_cluster_open+0x8c>
1c00a17c:	4785                	li	a5,1
1c00a17e:	bfb9                	j	1c00a0dc <pi_cluster_open+0xc4>

1c00a180 <pi_cluster_close>:
1c00a180:	4501                	li	a0,0
1c00a182:	8082                	ret

1c00a184 <pos_cluster_task_set_stack>:
1c00a184:	1101                	addi	sp,sp,-32
1c00a186:	c84a                	sw	s2,16(sp)
1c00a188:	00852903          	lw	s2,8(a0)
1c00a18c:	ca26                	sw	s1,20(sp)
1c00a18e:	c64e                	sw	s3,12(sp)
1c00a190:	4785                	li	a5,1
1c00a192:	ce06                	sw	ra,28(sp)
1c00a194:	cc22                	sw	s0,24(sp)
1c00a196:	00f90f23          	sb	a5,30(s2)
1c00a19a:	45dc                	lw	a5,12(a1)
1c00a19c:	89aa                	mv	s3,a0
1c00a19e:	84ae                	mv	s1,a1
1c00a1a0:	ebb1                	bnez	a5,1c00a1f4 <pos_cluster_task_set_stack+0x70>
1c00a1a2:	6785                	lui	a5,0x1
1c00a1a4:	80078793          	addi	a5,a5,-2048 # 800 <pos_soc_event_callback+0x3b8>
1c00a1a8:	40000713          	li	a4,1024
1c00a1ac:	c5dc                	sw	a5,12(a1)
1c00a1ae:	c998                	sw	a4,16(a1)
1c00a1b0:	40000693          	li	a3,1024
1c00a1b4:	48d8                	lw	a4,20(s1)
1c00a1b6:	00892503          	lw	a0,8(s2)
1c00a1ba:	177d                	addi	a4,a4,-1
1c00a1bc:	843e                	mv	s0,a5
1c00a1be:	42d70433          	p.mac	s0,a4,a3
1c00a1c2:	c901                	beqz	a0,1c00a1d2 <pos_cluster_task_set_stack+0x4e>
1c00a1c4:	00c92603          	lw	a2,12(s2)
1c00a1c8:	00860d63          	beq	a2,s0,1c00a1e2 <pos_cluster_task_set_stack+0x5e>
1c00a1cc:	85aa                	mv	a1,a0
1c00a1ce:	854e                	mv	a0,s3
1c00a1d0:	3ec1                	jal	1c009da0 <pi_cl_l1_free>
1c00a1d2:	00892623          	sw	s0,12(s2)
1c00a1d6:	85a2                	mv	a1,s0
1c00a1d8:	854e                	mv	a0,s3
1c00a1da:	367d                	jal	1c009d88 <pi_cl_l1_malloc>
1c00a1dc:	00a92423          	sw	a0,8(s2)
1c00a1e0:	cd19                	beqz	a0,1c00a1fe <pos_cluster_task_set_stack+0x7a>
1c00a1e2:	c488                	sw	a0,8(s1)
1c00a1e4:	4501                	li	a0,0
1c00a1e6:	40f2                	lw	ra,28(sp)
1c00a1e8:	4462                	lw	s0,24(sp)
1c00a1ea:	44d2                	lw	s1,20(sp)
1c00a1ec:	4942                	lw	s2,16(sp)
1c00a1ee:	49b2                	lw	s3,12(sp)
1c00a1f0:	6105                	addi	sp,sp,32
1c00a1f2:	8082                	ret
1c00a1f4:	4994                	lw	a3,16(a1)
1c00a1f6:	fedd                	bnez	a3,1c00a1b4 <pos_cluster_task_set_stack+0x30>
1c00a1f8:	c99c                	sw	a5,16(a1)
1c00a1fa:	86be                	mv	a3,a5
1c00a1fc:	bf65                	j	1c00a1b4 <pos_cluster_task_set_stack+0x30>
1c00a1fe:	557d                	li	a0,-1
1c00a200:	b7dd                	j	1c00a1e6 <pos_cluster_task_set_stack+0x62>

1c00a202 <pi_cluster_send_task_to_cl_async>:
1c00a202:	1101                	addi	sp,sp,-32
1c00a204:	ca26                	sw	s1,20(sp)
1c00a206:	4504                	lw	s1,8(a0)
1c00a208:	cc22                	sw	s0,24(sp)
1c00a20a:	c84a                	sw	s2,16(sp)
1c00a20c:	ce06                	sw	ra,28(sp)
1c00a20e:	01d4c703          	lbu	a4,29(s1)
1c00a212:	842e                	mv	s0,a1
1c00a214:	0044a903          	lw	s2,4(s1)
1c00a218:	459c                	lw	a5,8(a1)
1c00a21a:	02173e63          	p.bneimm	a4,1,1c00a256 <pi_cluster_send_task_to_cl_async+0x54>
1c00a21e:	c7a1                	beqz	a5,1c00a266 <pi_cluster_send_task_to_cl_async+0x64>
1c00a220:	02042023          	sw	zero,32(s0)
1c00a224:	cc10                	sw	a2,24(s0)
1c00a226:	30047773          	csrrci	a4,mstatus,8
1c00a22a:	409c                	lw	a5,0(s1)
1c00a22c:	c391                	beqz	a5,1c00a230 <pi_cluster_send_task_to_cl_async+0x2e>
1c00a22e:	d380                	sw	s0,32(a5)
1c00a230:	c080                	sw	s0,0(s1)
1c00a232:	00092783          	lw	a5,0(s2)
1c00a236:	cf89                	beqz	a5,1c00a250 <pi_cluster_send_task_to_cl_async+0x4e>
1c00a238:	4c9c                	lw	a5,24(s1)
1c00a23a:	0007a023          	sw	zero,0(a5)
1c00a23e:	30071073          	csrw	mstatus,a4
1c00a242:	4501                	li	a0,0
1c00a244:	40f2                	lw	ra,28(sp)
1c00a246:	4462                	lw	s0,24(sp)
1c00a248:	44d2                	lw	s1,20(sp)
1c00a24a:	4942                	lw	s2,16(sp)
1c00a24c:	6105                	addi	sp,sp,32
1c00a24e:	8082                	ret
1c00a250:	00892023          	sw	s0,0(s2)
1c00a254:	b7d5                	j	1c00a238 <pi_cluster_send_task_to_cl_async+0x36>
1c00a256:	c38d                	beqz	a5,1c00a278 <pi_cluster_send_task_to_cl_async+0x76>
1c00a258:	4858                	lw	a4,20(s0)
1c00a25a:	4785                	li	a5,1
1c00a25c:	00e797b3          	sll	a5,a5,a4
1c00a260:	17fd                	addi	a5,a5,-1
1c00a262:	d05c                	sw	a5,36(s0)
1c00a264:	bf75                	j	1c00a220 <pi_cluster_send_task_to_cl_async+0x1e>
1c00a266:	01e4c783          	lbu	a5,30(s1)
1c00a26a:	fbdd                	bnez	a5,1c00a220 <pi_cluster_send_task_to_cl_async+0x1e>
1c00a26c:	c632                	sw	a2,12(sp)
1c00a26e:	3f19                	jal	1c00a184 <pos_cluster_task_set_stack>
1c00a270:	4632                	lw	a2,12(sp)
1c00a272:	d55d                	beqz	a0,1c00a220 <pi_cluster_send_task_to_cl_async+0x1e>
1c00a274:	557d                	li	a0,-1
1c00a276:	b7f9                	j	1c00a244 <pi_cluster_send_task_to_cl_async+0x42>
1c00a278:	c632                	sw	a2,12(sp)
1c00a27a:	3729                	jal	1c00a184 <pos_cluster_task_set_stack>
1c00a27c:	4632                	lw	a2,12(sp)
1c00a27e:	dd69                	beqz	a0,1c00a258 <pi_cluster_send_task_to_cl_async+0x56>
1c00a280:	557d                	li	a0,-1
1c00a282:	b7c9                	j	1c00a244 <pi_cluster_send_task_to_cl_async+0x42>

1c00a284 <pi_cluster_send_task_to_cl>:
    hal_irq_restore(irq);
}

static inline struct pi_task *pi_task_block(struct pi_task *task)
{
	task->arg[0] = (uint32_t)pos_task_handle_blocking;
1c00a284:	1c00a7b7          	lui	a5,0x1c00a


int pi_cluster_send_task_to_cl(struct pi_device *device, struct pi_cluster_task *task)
{
1c00a288:	715d                	addi	sp,sp,-80
1c00a28a:	bd878793          	addi	a5,a5,-1064 # 1c009bd8 <pos_task_handle_blocking>
1c00a28e:	c23e                	sw	a5,4(sp)
    pi_task_t fc_task;

    pi_task_block(&fc_task);

    if (pi_cluster_send_task_to_cl_async(device, task, &fc_task))
1c00a290:	860a                	mv	a2,sp
	task->arg[1] = (uint32_t)task;
1c00a292:	00010793          	mv	a5,sp
{
1c00a296:	c686                	sw	ra,76(sp)
1c00a298:	c4a2                	sw	s0,72(sp)
1c00a29a:	c2a6                	sw	s1,68(sp)
1c00a29c:	c43e                	sw	a5,8(sp)
  	task->done = 0;
1c00a29e:	00010a23          	sb	zero,20(sp)
    if (pi_cluster_send_task_to_cl_async(device, task, &fc_task))
1c00a2a2:	3785                	jal	1c00a202 <pi_cluster_send_task_to_cl_async>
1c00a2a4:	e505                	bnez	a0,1c00a2cc <pi_cluster_send_task_to_cl+0x48>
1c00a2a6:	842a                	mv	s0,a0
  int irq = hal_spr_read_then_clr(0x300, 0x1<<3);
1c00a2a8:	300474f3          	csrrci	s1,mstatus,8
    while(likely(task->done == 0))
1c00a2ac:	01410783          	lb	a5,20(sp)
1c00a2b0:	e791                	bnez	a5,1c00a2bc <pi_cluster_send_task_to_cl+0x38>
        pos_task_handle();
1c00a2b2:	92fff0ef          	jal	ra,1c009be0 <pos_task_handle>
    while(likely(task->done == 0))
1c00a2b6:	01410783          	lb	a5,20(sp)
1c00a2ba:	dfe5                	beqz	a5,1c00a2b2 <pi_cluster_send_task_to_cl+0x2e>
  hal_spr_write(0x300, state);
1c00a2bc:	30049073          	csrw	mstatus,s1
    }

    pi_task_wait_on(&fc_task);

    return 0;
}
1c00a2c0:	8522                	mv	a0,s0
1c00a2c2:	40b6                	lw	ra,76(sp)
1c00a2c4:	4426                	lw	s0,72(sp)
1c00a2c6:	4496                	lw	s1,68(sp)
1c00a2c8:	6161                	addi	sp,sp,80
1c00a2ca:	8082                	ret
        return -1;
1c00a2cc:	547d                	li	s0,-1
1c00a2ce:	bfcd                	j	1c00a2c0 <pi_cluster_send_task_to_cl+0x3c>

1c00a2d0 <pos_init_entry>:
    csrw    0xCC1, x0
1c00a2d0:	cc101073          	csrw	0xcc1,zero
    csrr    a0, 0xF14
1c00a2d4:	f1402573          	csrr	a0,mhartid
    andi    a1, a0, 0x1f
1c00a2d8:	01f57593          	andi	a1,a0,31
    srli    a0, a0, 5
1c00a2dc:	8115                	srli	a0,a0,0x5
    li      a2, ARCHI_FC_CID
1c00a2de:	467d                	li	a2,31
    beq     a0, a2, label0
1c00a2e0:	00c50463          	beq	a0,a2,1c00a2e8 <label0>
    j      pos_pe_start
1c00a2e4:	51d0506f          	j	1c010000 <__cluster_text_start>

1c00a2e8 <label0>:
    la      t0, _bss_start
1c00a2e8:	ffff7297          	auipc	t0,0xffff7
1c00a2ec:	20828293          	addi	t0,t0,520 # 1c0014f0 <_edata>
    la      t1, _bss_end
1c00a2f0:	ffff7317          	auipc	t1,0xffff7
1c00a2f4:	23030313          	addi	t1,t1,560 # 1c001520 <__l2_priv0_end>
    sw      zero,0(t0)
1c00a2f8:	0002a023          	sw	zero,0(t0)
    addi    t0, t0, 4
1c00a2fc:	0291                	addi	t0,t0,4
    bltu    t0, t1, 1b
1c00a2fe:	fe62ede3          	bltu	t0,t1,1c00a2f8 <label0+0x10>
    la   x2, stack
1c00a302:	ffff7117          	auipc	sp,0xffff7
1c00a306:	1ae10113          	addi	sp,sp,430 # 1c0014b0 <stack>
    la   t0, pos_init_start
1c00a30a:	00000297          	auipc	t0,0x0
1c00a30e:	85028293          	addi	t0,t0,-1968 # 1c009b5a <pos_init_start>
    jalr x1, t0
1c00a312:	000280e7          	jalr	t0
    addi  a0, x0, 0
1c00a316:	00000513          	li	a0,0
    addi  a1, x0, 0
1c00a31a:	00000593          	li	a1,0
    la    t2, main
1c00a31e:	ffffe397          	auipc	t2,0xffffe
1c00a322:	5f438393          	addi	t2,t2,1524 # 1c008912 <main>
    jalr  x1, t2
1c00a326:	000380e7          	jalr	t2
    mv    s0, a0
1c00a32a:	842a                	mv	s0,a0
    mv   a0, s0
1c00a32c:	8522                	mv	a0,s0
    la   t0, exit
1c00a32e:	fffff297          	auipc	t0,0xfffff
1c00a332:	84228293          	addi	t0,t0,-1982 # 1c008b70 <exit>
    jalr x1, t0
1c00a336:	000280e7          	jalr	t0

1c00a33a <pos_irq_call_external_c_function>:
  .section .text_l2

  .global pos_irq_call_external_c_function
pos_irq_call_external_c_function:

    add  sp, sp, -128
1c00a33a:	7119                	addi	sp,sp,-128

    sw   ra, 0x00(sp)
1c00a33c:	c006                	sw	ra,0(sp)
    sw   gp, 0x04(sp)
1c00a33e:	c20e                	sw	gp,4(sp)
    sw   tp, 0x08(sp)
1c00a340:	c412                	sw	tp,8(sp)
    sw   t0, 0x0C(sp)
1c00a342:	c616                	sw	t0,12(sp)
    sw   t1, 0x10(sp)
1c00a344:	c81a                	sw	t1,16(sp)
    sw   t2, 0x14(sp)
1c00a346:	ca1e                	sw	t2,20(sp)
    sw   a3, 0x24(sp)
1c00a348:	d236                	sw	a3,36(sp)
    sw   a4, 0x28(sp)
1c00a34a:	d43a                	sw	a4,40(sp)
    sw   a5, 0x2C(sp)
1c00a34c:	d63e                	sw	a5,44(sp)
    sw   a6, 0x30(sp)
1c00a34e:	d842                	sw	a6,48(sp)
    sw   a7, 0x34(sp)
1c00a350:	da46                	sw	a7,52(sp)
    sw   t3, 0x38(sp)
1c00a352:	dc72                	sw	t3,56(sp)
    sw   t4, 0x3C(sp)
1c00a354:	de76                	sw	t4,60(sp)
    sw   t5, 0x40(sp)
1c00a356:	c0fa                	sw	t5,64(sp)
    sw   t6, 0x4C(sp)
1c00a358:	c6fe                	sw	t6,76(sp)

    jalr ra, a2
1c00a35a:	000600e7          	jalr	a2

    lw   ra, 0x00(sp)
1c00a35e:	4082                	lw	ra,0(sp)
    lw   gp, 0x04(sp)
1c00a360:	4192                	lw	gp,4(sp)
    lw   tp, 0x08(sp)
1c00a362:	4222                	lw	tp,8(sp)
    lw   t0, 0x0C(sp)
1c00a364:	42b2                	lw	t0,12(sp)
    lw   t1, 0x10(sp)
1c00a366:	4342                	lw	t1,16(sp)
    lw   t2, 0x14(sp)
1c00a368:	43d2                	lw	t2,20(sp)
    lw   a3, 0x24(sp)
1c00a36a:	5692                	lw	a3,36(sp)
    lw   a4, 0x28(sp)
1c00a36c:	5722                	lw	a4,40(sp)
    lw   a5, 0x2C(sp)
1c00a36e:	57b2                	lw	a5,44(sp)
    lw   a6, 0x30(sp)
1c00a370:	5842                	lw	a6,48(sp)
    lw   a7, 0x34(sp)
1c00a372:	58d2                	lw	a7,52(sp)
    lw   t3, 0x38(sp)
1c00a374:	5e62                	lw	t3,56(sp)
    lw   t4, 0x3C(sp)
1c00a376:	5ef2                	lw	t4,60(sp)
    lw   t5, 0x40(sp)
1c00a378:	4f06                	lw	t5,64(sp)
    lw   t6, 0x4C(sp)
1c00a37a:	4fb6                	lw	t6,76(sp)

    add  sp, sp, 128
1c00a37c:	6109                	addi	sp,sp,128

    jr   x9
1c00a37e:	8482                	jr	s1

1c00a380 <pos_irq_call_external_c_function_full>:


  .global pos_irq_call_external_c_function_full
pos_irq_call_external_c_function_full:

    add  sp, sp, -128
1c00a380:	7119                	addi	sp,sp,-128

    sw   ra, 0x00(sp)
1c00a382:	c006                	sw	ra,0(sp)
    sw   gp, 0x04(sp)
1c00a384:	c20e                	sw	gp,4(sp)
    sw   tp, 0x08(sp)
1c00a386:	c412                	sw	tp,8(sp)
    sw   t0, 0x0C(sp)
1c00a388:	c616                	sw	t0,12(sp)
    sw   t1, 0x10(sp)
1c00a38a:	c81a                	sw	t1,16(sp)
    sw   t2, 0x14(sp)
1c00a38c:	ca1e                	sw	t2,20(sp)
    sw   a0, 0x18(sp)
1c00a38e:	cc2a                	sw	a0,24(sp)
    sw   a1, 0x1C(sp)
1c00a390:	ce2e                	sw	a1,28(sp)
    sw   a3, 0x24(sp)
1c00a392:	d236                	sw	a3,36(sp)
    sw   a4, 0x28(sp)
1c00a394:	d43a                	sw	a4,40(sp)
    sw   a5, 0x2C(sp)
1c00a396:	d63e                	sw	a5,44(sp)
    sw   a6, 0x30(sp)
1c00a398:	d842                	sw	a6,48(sp)
    sw   a7, 0x34(sp)
1c00a39a:	da46                	sw	a7,52(sp)
    sw   t3, 0x38(sp)
1c00a39c:	dc72                	sw	t3,56(sp)
    sw   t4, 0x3C(sp)
1c00a39e:	de76                	sw	t4,60(sp)
    sw   t5, 0x40(sp)
1c00a3a0:	c0fa                	sw	t5,64(sp)
    sw   t6, 0x4C(sp)
1c00a3a2:	c6fe                	sw	t6,76(sp)

    jalr ra, a2
1c00a3a4:	000600e7          	jalr	a2

    lw   ra, 0x00(sp)
1c00a3a8:	4082                	lw	ra,0(sp)
    lw   gp, 0x04(sp)
1c00a3aa:	4192                	lw	gp,4(sp)
    lw   tp, 0x08(sp)
1c00a3ac:	4222                	lw	tp,8(sp)
    lw   t0, 0x0C(sp)
1c00a3ae:	42b2                	lw	t0,12(sp)
    lw   t1, 0x10(sp)
1c00a3b0:	4342                	lw	t1,16(sp)
    lw   t2, 0x14(sp)
1c00a3b2:	43d2                	lw	t2,20(sp)
    lw   a0, 0x18(sp)
1c00a3b4:	4562                	lw	a0,24(sp)
    lw   a1, 0x1C(sp)
1c00a3b6:	45f2                	lw	a1,28(sp)
    lw   a3, 0x24(sp)
1c00a3b8:	5692                	lw	a3,36(sp)
    lw   a4, 0x28(sp)
1c00a3ba:	5722                	lw	a4,40(sp)
    lw   a5, 0x2C(sp)
1c00a3bc:	57b2                	lw	a5,44(sp)
    lw   a6, 0x30(sp)
1c00a3be:	5842                	lw	a6,48(sp)
    lw   a7, 0x34(sp)
1c00a3c0:	58d2                	lw	a7,52(sp)
    lw   t3, 0x38(sp)
1c00a3c2:	5e62                	lw	t3,56(sp)
    lw   t4, 0x3C(sp)
1c00a3c4:	5ef2                	lw	t4,60(sp)
    lw   t5, 0x40(sp)
1c00a3c6:	4f06                	lw	t5,64(sp)
    lw   t6, 0x4C(sp)
1c00a3c8:	4fb6                	lw	t6,76(sp)

    add  sp, sp, 128
1c00a3ca:	6109                	addi	sp,sp,128

    jr   x9
1c00a3cc:	8482                	jr	s1

1c00a3ce <pos_task_push_asm>:
    //   x12/a2: temporary register

#ifdef CONFIG_NO_STD_RELOC
    lw      x12, %tiny(pos_sched_first)(x0)
#else
    la      t0, pos_sched_first
1c00a3ce:	e3ff6297          	auipc	t0,0xe3ff6
1c00a3d2:	c5228293          	addi	t0,t0,-942 # 20 <pos_sched_first>
    lw      x12, 0(t0)
1c00a3d6:	0002a603          	lw	a2,0(t0)
#endif
    sw      x0, PI_TASK_T_NEXT(x11)
1c00a3da:	0005a023          	sw	zero,0(a1)
    beqz    x12, __rt_no_first
1c00a3de:	ca09                	beqz	a2,1c00a3f0 <__rt_no_first>
#ifdef CONFIG_NO_STD_RELOC
    lw      x12, %tiny(pos_sched_last)(x0)
#else
    la      t0, pos_sched_last
1c00a3e0:	e3ff6297          	auipc	t0,0xe3ff6
1c00a3e4:	c4428293          	addi	t0,t0,-956 # 24 <pos_sched_last>
    lw      x12, 0(t0)
1c00a3e8:	0002a603          	lw	a2,0(t0)
#endif
    sw      x11, PI_TASK_T_NEXT(x12)
1c00a3ec:	c20c                	sw	a1,0(a2)
    j       __rt_common
1c00a3ee:	a029                	j	1c00a3f8 <__rt_common>

1c00a3f0 <__rt_no_first>:

    __rt_no_first:
#ifdef CONFIG_NO_STD_RELOC
    sw      x11, %tiny(pos_sched_first)(x0)
#else
    sw      x11, pos_sched_first, t0
1c00a3f0:	e3ff6297          	auipc	t0,0xe3ff6
1c00a3f4:	c2b2a823          	sw	a1,-976(t0) # 20 <pos_sched_first>

1c00a3f8 <__rt_common>:

    __rt_common:
#ifdef CONFIG_NO_STD_RELOC
    sw      x11, %tiny(pos_sched_last)(x0)
#else
    sw      x11, pos_sched_last, t0
1c00a3f8:	e3ff6297          	auipc	t0,0xe3ff6
1c00a3fc:	c2b2a623          	sw	a1,-980(t0) # 24 <pos_sched_last>

1c00a400 <enqueue_end>:
#endif

    enqueue_end:
    jr          x9
1c00a400:	8482                	jr	s1

1c00a402 <pos_task_remote_enqueue>:
    // The FC must get it and push it to the scheduler

    .global pos_task_remote_enqueue
pos_task_remote_enqueue:

    sw  x8, -4(sp)
1c00a402:	fe812e23          	sw	s0,-4(sp)
    sw  x9, -8(sp)
1c00a406:	fe912c23          	sw	s1,-8(sp)
    sw  a0, -12(sp)
1c00a40a:	fea12a23          	sw	a0,-12(sp)
    sw  a1, -16(sp)
1c00a40e:	feb12823          	sw	a1,-16(sp)
    sw  a2, -20(sp)
1c00a412:	fec12623          	sw	a2,-20(sp)
    sw  t0, -24(sp)
1c00a416:	fe512423          	sw	t0,-24(sp)

    li   x8, ARCHI_NB_CLUSTER
1c00a41a:	4405                	li	s0,1
    la   x9, pos_cluster
1c00a41c:	ffff7497          	auipc	s1,0xffff7
1c00a420:	0e448493          	addi	s1,s1,228 # 1c001500 <pos_cluster>

1c00a424 <pos_task_remote_enqueue_event_loop_cluster>:

    // Loop over the clusters to see if there is an event to push
pos_task_remote_enqueue_event_loop_cluster:
    lw   a1, POS_CLUSTER_T_CL_TASKS(x9)
1c00a424:	48cc                	lw	a1,20(s1)
    lw   a2, POS_CLUSTER_T_POOL(x9)
1c00a426:	40d0                	lw	a2,4(s1)

    beq  a1, x0, pos_task_remote_enqueue_event_loop_cluster_continue
1c00a428:	02058a63          	beqz	a1,1c00a45c <pos_task_remote_enqueue_event_loop_cluster_continue>

    lw   a0, POS_CLUSTER_CALL_POOL_T_FIRST_CALL_FC_FOR_CL(a2)
1c00a42c:	4208                	lw	a0,0(a2)

    bnez a0, pos_task_remote_enqueue_no_queue_update
1c00a42e:	e119                	bnez	a0,1c00a434 <pos_task_remote_enqueue_no_queue_update>
    sw   x0, POS_CLUSTER_T_LAST_CALL_FC(x9)
1c00a430:	0004a023          	sw	zero,0(s1)

1c00a434 <pos_task_remote_enqueue_no_queue_update>:

pos_task_remote_enqueue_no_queue_update:
    lw   a2, POS_CLUSTER_T_TRIG_ADDR(x9)
1c00a434:	4890                	lw	a2,16(s1)
    sw   x0, POS_CLUSTER_T_CL_TASKS(x9)
1c00a436:	0004aa23          	sw	zero,20(s1)

    sw   x0, 0(a2)
1c00a43a:	00062023          	sw	zero,0(a2)

    la   x9, pos_task_remote_enqueue_event_loop_cluster_continue
1c00a43e:	00000497          	auipc	s1,0x0
1c00a442:	01e48493          	addi	s1,s1,30 # 1c00a45c <pos_task_remote_enqueue_event_loop_cluster_continue>

    // Check if it is a normal event
    andi    a0, a1, 0x3
1c00a446:	0035f513          	andi	a0,a1,3
    bne     a0, x0, pos_task_callback
1c00a44a:	00051363          	bnez	a0,1c00a450 <pos_task_callback>

    j    pos_task_push_asm
1c00a44e:	b741                	j	1c00a3ce <pos_task_push_asm>

1c00a450 <pos_task_callback>:

pos_task_callback:
    li      x10, ~0x3
1c00a450:	5571                	li	a0,-4
    and     x11, x11, x10
1c00a452:	8de9                	and	a1,a1,a0
    lw      x12, PI_CALLBACK_T_ENTRY(x11)
1c00a454:	41d0                	lw	a2,4(a1)
    lw      x10, PI_CALLBACK_T_ARG(x11)
1c00a456:	4588                	lw	a0,8(a1)
    j       pos_irq_call_external_c_function
1c00a458:	ee3ff06f          	j	1c00a33a <pos_irq_call_external_c_function>

1c00a45c <pos_task_remote_enqueue_event_loop_cluster_continue>:


pos_task_remote_enqueue_event_loop_cluster_continue:
    addi x8, x8, -1
1c00a45c:	147d                	addi	s0,s0,-1
    bgt  x8, x0, pos_task_remote_enqueue_event_loop_next_cluster
1c00a45e:	02804063          	bgtz	s0,1c00a47e <pos_task_remote_enqueue_event_loop_next_cluster>



    lw  x8, -4(sp)
1c00a462:	ffc12403          	lw	s0,-4(sp)
    lw  x9, -8(sp)
1c00a466:	ff812483          	lw	s1,-8(sp)
    lw  a0, -12(sp)
1c00a46a:	ff412503          	lw	a0,-12(sp)
    lw  a1, -16(sp)
1c00a46e:	ff012583          	lw	a1,-16(sp)
    lw  a2, -20(sp)
1c00a472:	fec12603          	lw	a2,-20(sp)
    lw  t0, -24(sp)
1c00a476:	fe812283          	lw	t0,-24(sp)

    mret
1c00a47a:	30200073          	mret

1c00a47e <pos_task_remote_enqueue_event_loop_next_cluster>:


pos_task_remote_enqueue_event_loop_next_cluster:
    la   x9, pos_cluster
1c00a47e:	ffff7497          	auipc	s1,0xffff7
1c00a482:	08248493          	addi	s1,s1,130 # 1c001500 <pos_cluster>
    li   a1, POS_CLUSTER_T_SIZEOF
1c00a486:	02c00593          	li	a1,44
    mul  a1, x8, a1
1c00a48a:	02b405b3          	mul	a1,s0,a1
    add  x9, x9, a1
1c00a48e:	94ae                	add	s1,s1,a1
    j pos_task_remote_enqueue_event_loop_cluster
1c00a490:	bf51                	j	1c00a424 <pos_task_remote_enqueue_event_loop_cluster>

1c00a492 <pos_time_timer_handler_asm>:

    .section .text_l2, "ax"

    .global pos_time_timer_handler_asm
pos_time_timer_handler_asm:
    add sp, sp, -8
1c00a492:	1161                	addi	sp,sp,-8
    sw  x12, 0(sp)
1c00a494:	c032                	sw	a2,0(sp)
    sw  x9, 4(sp)
1c00a496:	c226                	sw	s1,4(sp)

    la   x12, pos_time_timer_handler
1c00a498:	00000617          	auipc	a2,0x0
1c00a49c:	a2460613          	addi	a2,a2,-1500 # 1c009ebc <pos_time_timer_handler>
    la   x9, pos_time_timer_handler_asm_ret
1c00a4a0:	00000497          	auipc	s1,0x0
1c00a4a4:	00c48493          	addi	s1,s1,12 # 1c00a4ac <pos_time_timer_handler_asm_ret>
    j    pos_irq_call_external_c_function_full
1c00a4a8:	ed9ff06f          	j	1c00a380 <pos_irq_call_external_c_function_full>

1c00a4ac <pos_time_timer_handler_asm_ret>:

pos_time_timer_handler_asm_ret:
    lw  x9, 4(sp)
1c00a4ac:	4492                	lw	s1,4(sp)
    lw  x12, 0(sp)
1c00a4ae:	4602                	lw	a2,0(sp)
    add sp, sp, 8
1c00a4b0:	0121                	addi	sp,sp,8
    mret
1c00a4b2:	30200073          	mret

1c00a4b6 <pos_soc_event_handler_asm>:
    #
    # Context saving
    #

    # The stack is first adjusted to have stack-based load/store compressed
    add sp, sp, -128
1c00a4b6:	7119                	addi	sp,sp,-128
    sw  x8, 0(sp)
1c00a4b8:	c022                	sw	s0,0(sp)
    sw  x9, 4(sp)
1c00a4ba:	c226                	sw	s1,4(sp)
    sw  x10, 8(sp)
1c00a4bc:	c42a                	sw	a0,8(sp)
    sw  x11, 12(sp)
1c00a4be:	c62e                	sw	a1,12(sp)
    sw  x12, 16(sp)
1c00a4c0:	c832                	sw	a2,16(sp)
    sw  t0, 20(sp)
1c00a4c2:	ca16                	sw	t0,20(sp)
    #
    # SOC event fifo handing
    #

    # Pop one element from the FIFO
    li   x8, ARCHI_FC_ITC_ADDR
1c00a4c4:	1a10a437          	lui	s0,0x1a10a
1c00a4c8:	80040413          	addi	s0,s0,-2048 # 1a109800 <__l1_end+0xa1096dc>
    lw   x10, ITC_FIFO_OFFSET(x8)
1c00a4cc:	5048                	lw	a0,36(s0)
    #
    # UDMA channel events
    #

    # We have the event ID in x10, get pointer to the corresponding event callback
    slli x11, x10, 2
1c00a4ce:	00251593          	slli	a1,a0,0x2

#ifdef CONFIG_NO_STD_RELOC
    lw   x12, %tiny(pos_soc_event_callback)(x11)
    lw   x11, %tiny(pos_soc_event_callback_arg)(x11)
#else
    la   t0, pos_soc_event_callback
1c00a4d2:	e3ff6297          	auipc	t0,0xe3ff6
1c00a4d6:	f7628293          	addi	t0,t0,-138 # 448 <pos_soc_event_callback>
    p.lw x12, t0(x11)
1c00a4da:	2055f603          	p.lw	a2,t0(a1)
    la   t0, pos_soc_event_callback_arg
1c00a4de:	e3ff6297          	auipc	t0,0xe3ff6
1c00a4e2:	b6a28293          	addi	t0,t0,-1174 # 48 <pos_soc_event_callback_arg>
    p.lw x11, t0(x11)
1c00a4e6:	2055f583          	p.lw	a1,t0(a1)
#endif
    la   x9, pos_soc_event_handler_end_asm
1c00a4ea:	00000497          	auipc	s1,0x0
1c00a4ee:	03048493          	addi	s1,s1,48 # 1c00a51a <pos_soc_event_handler_end_asm>
    j    pos_irq_call_external_c_function
1c00a4f2:	e49ff06f          	j	1c00a33a <pos_irq_call_external_c_function>

1c00a4f6 <pos_soc_event_no_udma_asm>:
    # SOC event status register
    #

pos_soc_event_store_asm:
    # If the event is not handled, store it in the soc event status mask
    srli    x11, x10, 5
1c00a4f6:	00555593          	srli	a1,a0,0x5
    slli    x11, x11, 2
1c00a4fa:	058a                	slli	a1,a1,0x2
#ifdef CONFIG_NO_STD_RELOC
    lw      x12, %tiny(pos_soc_event_status)(x11)
#else
    la   t0, pos_soc_event_status
1c00a4fc:	e3ff6297          	auipc	t0,0xe3ff6
1c00a500:	b2c28293          	addi	t0,t0,-1236 # 28 <pos_soc_event_status>
    p.lw x12, t0(x11)
1c00a504:	2055f603          	p.lw	a2,t0(a1)
#endif
    andi    x10, x10, 0x1f
1c00a508:	897d                	andi	a0,a0,31

    p.bsetr x12, x12, x10
1c00a50a:	80a64633          	p.bsetr	a2,a2,a0

#ifdef CONFIG_NO_STD_RELOC
    sw      x12, %tiny(pos_soc_event_status)(x11)
#else
    la      t0, pos_soc_event_status
1c00a50e:	e3ff6297          	auipc	t0,0xe3ff6
1c00a512:	b1a28293          	addi	t0,t0,-1254 # 28 <pos_soc_event_status>
    p.sw    x12, t0(x11)
1c00a516:	00c5e2a3          	p.sw	a2,t0(a1)

1c00a51a <pos_soc_event_handler_end_asm>:

    # SOC event handler exit
    #
    .global pos_soc_event_handler_end_asm
pos_soc_event_handler_end_asm:
    lw  x8, 0(sp)
1c00a51a:	4402                	lw	s0,0(sp)
    lw  x9, 4(sp)
1c00a51c:	4492                	lw	s1,4(sp)
    lw  x10, 8(sp)
1c00a51e:	4522                	lw	a0,8(sp)
    lw  x11, 12(sp)
1c00a520:	45b2                	lw	a1,12(sp)
    lw  x12, 16(sp)
1c00a522:	4642                	lw	a2,16(sp)
    lw  t0, 20(sp)
1c00a524:	42d2                	lw	t0,20(sp)
    add sp, sp, 128
1c00a526:	6109                	addi	sp,sp,128
    mret
1c00a528:	30200073          	mret

Disassembly of section .l2_data:

1c010000 <__cluster_text_start>:

    .section .cluster.text , "ax"

    .global pos_pe_start
pos_pe_start:
    csrr    a0, 0xF14
1c010000:	f1402573          	csrr	a0,mhartid
    andi    a1, a0, 0x1f
1c010004:	01f57593          	andi	a1,a0,31
    srli    a0, a0, 5
1c010008:	8115                	srli	a0,a0,0x5

    // Activate a few events
    li      t0, (1<<ARCHI_CL_EVT_DISPATCH) | (1<<ARCHI_CL_EVT_BAR) | (1<<ARCHI_CL_EVT_MUTEX)
1c01000a:	000702b7          	lui	t0,0x70
    li      t1, ARCHI_EU_DEMUX_ADDR
1c01000e:	00204337          	lui	t1,0x204
    sw      t0, EU_CORE_MASK(t1)
1c010012:	00532023          	sw	t0,0(t1) # 204000 <__l1_heap_size+0x1f4124>

#ifdef ARCHI_CC_CORE_ID
    li      t2, ARCHI_CC_CORE_ID
#else
    li      t2, 0
1c010016:	4381                	li	t2,0
#endif
    bne     a1, t2, pos_slave_start
1c010018:	0e759463          	bne	a1,t2,1c010100 <pos_slave_start>

    li      t0, (1<<ARCHI_CL_EVT_DMA1)
1c01001c:	20000293          	li	t0,512
    li      t1, ARCHI_EU_DEMUX_ADDR
1c010020:	00204337          	lui	t1,0x204
    sw      t0, EU_CORE_MASK_IRQ_OR(t1)
1c010024:	00532a23          	sw	t0,20(t1) # 204014 <__l1_heap_size+0x1f4138>

    // Prepare few values that will be kept in saved registers to optimize the loop
    la      s0, pos_cluster_pool
1c010028:	e3ff0417          	auipc	s0,0xe3ff0
1c01002c:	fdc40413          	addi	s0,s0,-36 # 4 <pos_fll_freq>
    li      s3, ARCHI_EU_DEMUX_ADDR
1c010030:	002049b7          	lui	s3,0x204
    li      s4, 1<<POS_EVENT_CLUSTER_CALL_EVT
1c010034:	4a09                	li	s4,2
    la      s5, pos_master_event
1c010036:	00000a97          	auipc	s5,0x0
1c01003a:	038a8a93          	addi	s5,s5,56 # 1c01006e <pos_master_event>
    la      s7, pos_cluster
1c01003e:	ffff1b97          	auipc	s7,0xffff1
1c010042:	4c2b8b93          	addi	s7,s7,1218 # 1c001500 <pos_cluster>
    li      t2, POS_CLUSTER_T_SIZEOF
1c010046:	02c00393          	li	t2,44
    mul     t2, t2, a0
1c01004a:	02a383b3          	mul	t2,t2,a0
    add     s7, s7, t2
1c01004e:	9b9e                	add	s7,s7,t2
    addi    s7, s7, POS_CLUSTER_T_CL_TASKS
1c010050:	0bd1                	addi	s7,s7,20
    li      s9, ARCHI_FC_ITC_ADDR + ITC_STATUS_SET_OFFSET
1c010052:	1a10acb7          	lui	s9,0x1a10a
1c010056:	810c8c93          	addi	s9,s9,-2032 # 1a109810 <__l1_end+0xa1096ec>
    li      s8, 1<<POS_EVENT_FC_ENQUEUE
1c01005a:	4c09                	li	s8,2

    la      s10, pos_set_slave_stack
1c01005c:	00000d17          	auipc	s10,0x0
1c010060:	0e2d0d13          	addi	s10,s10,226 # 1c01013e <pos_set_slave_stack>
    ori     s10, s10, 1
1c010064:	001d6d13          	ori	s10,s10,1

    csrwi   0x300, 0x8
1c010068:	30045073          	csrwi	mstatus,8

    j       pos_master_loop
1c01006c:	a829                	j	1c010086 <pos_master_loop>

1c01006e <pos_master_event>:




pos_master_event:
    lw      s6, PI_CLUSTER_TASK_COMPLETION_CALLBACK(s6)
1c01006e:	018b2b03          	lw	s6,24(s6)
    beq     s6, x0, pos_master_loop
1c010072:	000b0a63          	beqz	s6,1c010086 <pos_master_loop>

1c010076 <pos_push_event_to_fc_retry>:

pos_push_event_to_fc_retry:
    // Now we have to push the termination event to FC side
    // First wait until the slot for posting events is free
    lw      t0, 0(s7)
1c010076:	000ba283          	lw	t0,0(s7)
    bne     t0, x0, pos_push_event_to_fc_wait
1c01007a:	06029c63          	bnez	t0,1c0100f2 <pos_push_event_to_fc_wait>

    // Push it
    sw      s6, 0(s7)
1c01007e:	016ba023          	sw	s6,0(s7)

    // And notify the FC side with a HW event in case it is sleeping
    sw      s8, 0(s9)
1c010082:	018ca023          	sw	s8,0(s9)

1c010086 <pos_master_loop>:


pos_master_loop:
    // Check if a task is ready in the pool
    lw      s6, 0(s0)
1c010086:	00042b03          	lw	s6,0(s0)

    // Check if a call is ready, e.g. if nb_pe is not zero
    // otherwise go to sleep
    beq     s6, x0, pos_master_sleep
1c01008a:	040b0d63          	beqz	s6,1c0100e4 <pos_master_sleep>

1c01008e <pos_master_loop_update_next>:

pos_master_loop_update_next:
    lw      t4, PI_CLUSTER_TASK_NEXT(s6)
1c01008e:	020b2e83          	lw	t4,32(s6)
    sw      t4, 0(s0)
1c010092:	01d42023          	sw	t4,0(s0)

    // Check again next pointer in case it was updated by the FC.
    // If so, do it it again as this will ensure that either we see the new
    // value or the FC sees our write
    lw      t5, PI_CLUSTER_TASK_NEXT(s6)
1c010096:	020b2f03          	lw	t5,32(s6)
    bne     t4, t5, pos_master_loop_update_next
1c01009a:	ffee9ae3          	bne	t4,t5,1c01008e <pos_master_loop_update_next>

1c01009e <pos_master_loop_exec_task>:

pos_master_loop_exec_task:
    // Reads entry point information
    lw      a0, PI_CLUSTER_TASK_ARG(s6)
1c01009e:	004b2503          	lw	a0,4(s6)
    lw      t0, PI_CLUSTER_TASK_ENTRY(s6)
1c0100a2:	000b2283          	lw	t0,0(s6)
    lw      sp, PI_CLUSTER_TASK_STACKS(s6)
1c0100a6:	008b2103          	lw	sp,8(s6)
    lw      t1, PI_CLUSTER_TASK_STACK_SIZE(s6)
1c0100aa:	00cb2303          	lw	t1,12(s6)
    lw      t2, PI_CLUSTER_TASK_SLAVE_STACK_SIZE(s6)
1c0100ae:	010b2383          	lw	t2,16(s6)
    lw      t5, PI_CLUSTER_TASK_CORE_MASK(s6)
1c0100b2:	024b2f03          	lw	t5,36(s6)
    lw      t6, PI_CLUSTER_TASK_NB_CORES(s6)
1c0100b6:	014b2f83          	lw	t6,20(s6)
    mv      ra, s5
1c0100ba:	80d6                	mv	ra,s5

    add     sp, sp, t1
1c0100bc:	911a                	add	sp,sp,t1

#ifdef CONFIG_NO_STD_RELOC
    sw      t6, %tiny(pos_cluster_nb_active_pe)(x0)
#else
    sw      t6, pos_cluster_nb_active_pe, t3
1c0100be:	e3ff0e17          	auipc	t3,0xe3ff0
1c0100c2:	f5fe2d23          	sw	t6,-166(t3) # 18 <pos_cluster_nb_active_pe>

1c0100c6 <pos_no_stack_check>:
#endif

pos_no_stack_check:
    // Whatever the number of cores, we need to setup the barrier as the master code is compiled to use it
    sw      t5, EU_DISPATCH_DEMUX_OFFSET + EU_DISPATCH_TEAM_CONFIG(s3)
1c0100c6:	09e9a223          	sw	t5,132(s3) # 204084 <__l1_heap_size+0x1f41a8>
    // When we have a cluster controller, don't configure the slave barrier
    // if we don't have have any slave
#ifdef ARCHI_CC_CORE_ID
    beqz    t5, pos_master_no_slave_barrier
#endif
    sw      t5, EU_BARRIER_DEMUX_OFFSET + EU_HW_BARR_TRIGGER_MASK(s3)
1c0100ca:	21e9a023          	sw	t5,512(s3)
    sw      t5, EU_BARRIER_DEMUX_OFFSET + EU_HW_BARR_TARGET_MASK(s3)
1c0100ce:	21e9a623          	sw	t5,524(s3)

1c0100d2 <pos_master_no_slave_barrier>:
    sw      t6, EU_BARRIER_DEMUX_OFFSET + EU_HW_BARR_TARGET_MASK + EU_BARRIER_SIZE(s3)
#endif

    // Set stack on slaves
    // For that we push first the function for setting stack, then the stack size and the base
    p.beqimm t5, 0, pos_master_loop_no_slave
1c0100d2:	000f2863          	p.beqimm	t5,0,1c0100e2 <pos_master_loop_no_slave>
    sw      s10, EU_DISPATCH_DEMUX_OFFSET + EU_DISPATCH_FIFO_ACCESS(s3)
1c0100d6:	09a9a023          	sw	s10,128(s3)
    sw      t2, EU_DISPATCH_DEMUX_OFFSET + EU_DISPATCH_FIFO_ACCESS(s3)
1c0100da:	0879a023          	sw	t2,128(s3)
    sw      sp, EU_DISPATCH_DEMUX_OFFSET + EU_DISPATCH_FIFO_ACCESS(s3)
1c0100de:	0829a023          	sw	sp,128(s3)

1c0100e2 <pos_master_loop_no_slave>:

pos_master_loop_no_slave:

    // Call the entry point, this will directly come back to the master loop
    jr      t0
1c0100e2:	8282                	jr	t0

1c0100e4 <pos_master_sleep>:


pos_master_sleep:
    sw      s4, EU_CORE_MASK_OR(s3)
1c0100e4:	0149a423          	sw	s4,8(s3)
    p.elw   x0, EU_CORE_EVENT_WAIT_CLEAR(s3)
1c0100e8:	03c9e003          	p.elw	zero,60(s3)
    sw      s4, EU_CORE_MASK_AND(s3)
1c0100ec:	0149a223          	sw	s4,4(s3)
    j       pos_master_loop
1c0100f0:	bf59                	j	1c010086 <pos_master_loop>

1c0100f2 <pos_push_event_to_fc_wait>:



pos_push_event_to_fc_wait:
    sw      s4, EU_CORE_MASK_OR(s3)
1c0100f2:	0149a423          	sw	s4,8(s3)
    p.elw   x0, EU_CORE_EVENT_WAIT_CLEAR(s3)
1c0100f6:	03c9e003          	p.elw	zero,60(s3)
    sw      s4, EU_CORE_MASK_AND(s3)
1c0100fa:	0149a223          	sw	s4,4(s3)
    j       pos_push_event_to_fc_retry
1c0100fe:	bfa5                	j	1c010076 <pos_push_event_to_fc_retry>

1c010100 <pos_slave_start>:



pos_slave_start:

    li      s2, ARCHI_EU_DEMUX_ADDR
1c010100:	00204937          	lui	s2,0x204
    csrr    s3, 0xF14
1c010104:	f14029f3          	csrr	s3,mhartid
    and     s3, s3, 0x1f
1c010108:	01f9f993          	andi	s3,s3,31


    la      s4, pos_fork_return
1c01010c:	00000a17          	auipc	s4,0x0
1c010110:	012a0a13          	addi	s4,s4,18 # 1c01011e <pos_fork_return>
    la      s5, pos_wait_for_dispatch
1c010114:	00000a97          	auipc	s5,0x0
1c010118:	00ea8a93          	addi	s5,s5,14 # 1c010122 <pos_wait_for_dispatch>
    j       pos_wait_for_dispatch
1c01011c:	a019                	j	1c010122 <pos_wait_for_dispatch>

1c01011e <pos_fork_return>:
#ifdef ARCHI_HAS_CC
    // When the cluster has a controller barrier 0 is used for normal team barrier
    // and barrier 1 is used for end of offload
    p.elw   t0, EU_BARRIER_DEMUX_OFFSET + EU_HW_BARR_TRIGGER_WAIT_CLEAR + EU_BARRIER_SIZE(s2)
#else
    p.elw   t0, EU_BARRIER_DEMUX_OFFSET + EU_HW_BARR_TRIGGER_WAIT_CLEAR(s2)
1c01011e:	21c96283          	p.elw	t0,540(s2) # 20421c <__l1_heap_size+0x1f4340>

1c010122 <pos_wait_for_dispatch>:
#endif    

pos_wait_for_dispatch:

    // Wait for PC + arg information from dispatcher
    p.elw   t0, EU_DISPATCH_DEMUX_OFFSET + EU_DISPATCH_FIFO_ACCESS(s2)
1c010122:	08096283          	p.elw	t0,128(s2)
    p.elw   a0, EU_DISPATCH_DEMUX_OFFSET + EU_DISPATCH_FIFO_ACCESS(s2)
1c010126:	08096503          	p.elw	a0,128(s2)

    // Check if this is an entry with a barrier at the end (fork entry)
    andi    t1, t0, 1
1c01012a:	0012f313          	andi	t1,t0,1
    bne     t1, zero, pos_other_entry
1c01012e:	00031563          	bnez	t1,1c010138 <pos_other_entry>

1c010132 <pos_fork_entry>:

pos_fork_entry:

    // Jump to the handler and prepare r9 to jump back just before the main loop
    add     ra, s4, x0
1c010132:	000a00b3          	add	ra,s4,zero
    jr      t0
1c010136:	8282                	jr	t0

1c010138 <pos_other_entry>:

pos_other_entry:

  // Jump to the handler and prepare r9 to jump back directly to the main loop
    add     ra, s5, x0
1c010138:	000a80b3          	add	ra,s5,zero
    jr      t0
1c01013c:	8282                	jr	t0

1c01013e <pos_set_slave_stack>:

  .global pos_set_slave_stack
pos_set_slave_stack:

    // Multiply the stack size by the core ID and add the stack base to get our stack
    p.elw   t0, EU_DISPATCH_DEMUX_OFFSET + EU_DISPATCH_FIFO_ACCESS(s2)
1c01013e:	08096283          	p.elw	t0,128(s2)
#if defined(CONFIG_PULP)
    addi     t5, s3, 0
1c010142:	00098f13          	mv	t5,s3
#else
    // If the cluster has a cluster controller, the first slave has core ID 0
    // and thus we need to take the next stack
    addi     t5, s3, 1
#endif
    mul   t4, t5, a0
1c010146:	02af0eb3          	mul	t4,t5,a0
    add     sp, t4, t0
1c01014a:	005e8133          	add	sp,t4,t0

    ret
1c01014e:	8082                	ret

1c010150 <__cluster_text_end>:
	...
